---
triple:          'arm64-apple-darwin'
binary-path:     compiled-test
relocations:
  - { offsetInCU: 0x5C, offset: 0x5C, size: 0x8, addend: 0x0, symName: __ZNSt3__17nulloptE, symObjAddr: 0x11E5, symBinAddr: 0x100003D8B, symSize: 0x0 }
  - { offsetInCU: 0x2F8E, offset: 0x2F8E, size: 0x8, addend: 0x0, symName: __ZNSt3__124__put_character_sequenceB7v160006IcNS_11char_traitsIcEEEERNS_13basic_ostreamIT_T0_EES7_PKS4_m, symObjAddr: 0x570, symBinAddr: 0x100001790, symSize: 0x1EC }
  - { offsetInCU: 0x490F, offset: 0x490F, size: 0x8, addend: 0x0, symName: __ZNSt3__1lsB7v160006INS_11char_traitsIcEEEERNS_13basic_ostreamIcT_EES6_PKc, symObjAddr: 0x40, symBinAddr: 0x100001260, symSize: 0x48 }
  - { offsetInCU: 0x4F4E, offset: 0x4F4E, size: 0x8, addend: 0x0, symName: __ZNSt3__116__pad_and_outputB7v160006IcNS_11char_traitsIcEEEENS_19ostreambuf_iteratorIT_T0_EES6_PKS4_S8_S8_RNS_8ios_baseES4_, symObjAddr: 0x7AC, symBinAddr: 0x1000019CC, symSize: 0x240 }
  - { offsetInCU: 0x501D, offset: 0x501D, size: 0x8, addend: 0x0, symName: __ZNSt3__119__debug_db_insert_cB7v160006INS_12basic_stringIcNS_11char_traitsIcEENS_9allocatorIcEEEEEEvPT_, symObjAddr: 0xC6C, symBinAddr: 0x100001E8C, symSize: 0x10 }
  - { offsetInCU: 0x504E, offset: 0x504E, size: 0x8, addend: 0x0, symName: __ZNSt3__112__to_addressB7v160006IcEEPT_S2_, symObjAddr: 0xD38, symBinAddr: 0x100001F58, symSize: 0x14 }
  - { offsetInCU: 0x50B6, offset: 0x50B6, size: 0x8, addend: 0x0, symName: __ZNSt3__19use_facetB7v160006INS_5ctypeIcEEEERKT_RKNS_6localeE, symObjAddr: 0xFF0, symBinAddr: 0x100002210, symSize: 0x2C }
  - { offsetInCU: 0x5585, offset: 0x5585, size: 0x8, addend: 0x0, symName: __ZNSt3__118__constexpr_strlenB7v160006EPKc, symObjAddr: 0x1088, symBinAddr: 0x1000022A8, symSize: 0x24 }
  - { offsetInCU: 0x7B04, offset: 0x7B04, size: 0x8, addend: 0x0, symName: __Z3foob, symObjAddr: 0x0, symBinAddr: 0x100001220, symSize: 0x40 }
  - { offsetInCU: 0x7B30, offset: 0x7B30, size: 0x8, addend: 0x0, symName: _main, symObjAddr: 0x88, symBinAddr: 0x1000012A8, symSize: 0x1E8 }
  - { offsetInCU: 0x7B4E, offset: 0x7B4E, size: 0x8, addend: 0x0, symName: __ZNSt3__112basic_stringIcNS_11char_traitsIcEENS_9allocatorIcEEEC1B7v160006IDnEEPKc, symObjAddr: 0x270, symBinAddr: 0x100001490, symSize: 0x34 }
  - { offsetInCU: 0x7C5C, offset: 0x7C5C, size: 0x8, addend: 0x0, symName: __ZNSt3__18optionalINS_12basic_stringIcNS_11char_traitsIcEENS_9allocatorIcEEEEEC1B7v160006ENS_9nullopt_tE, symObjAddr: 0x2A4, symBinAddr: 0x1000014C4, symSize: 0x2C }
  - { offsetInCU: 0x7C90, offset: 0x7C90, size: 0x8, addend: 0x0, symName: __ZNSt3__18optionalINS_12basic_stringIcNS_11char_traitsIcEENS_9allocatorIcEEEEED1Ev, symObjAddr: 0x2D0, symBinAddr: 0x1000014F0, symSize: 0x2C }
  - { offsetInCU: 0x7CBB, offset: 0x7CBB, size: 0x8, addend: 0x0, symName: __ZNSt3__18optionalINS_12basic_stringIcNS_11char_traitsIcEENS_9allocatorIcEEEEEC2B7v160006ENS_9nullopt_tE, symObjAddr: 0x2FC, symBinAddr: 0x10000151C, symSize: 0x2C }
  - { offsetInCU: 0x7CEE, offset: 0x7CEE, size: 0x8, addend: 0x0, symName: __ZNSt3__127__optional_move_assign_baseINS_12basic_stringIcNS_11char_traitsIcEENS_9allocatorIcEEEELb0EEC2B7v160006Ev, symObjAddr: 0x328, symBinAddr: 0x100001548, symSize: 0x2C }
  - { offsetInCU: 0x7D16, offset: 0x7D16, size: 0x8, addend: 0x0, symName: __ZNSt3__127__optional_copy_assign_baseINS_12basic_stringIcNS_11char_traitsIcEENS_9allocatorIcEEEELb0EEC2B7v160006Ev, symObjAddr: 0x354, symBinAddr: 0x100001574, symSize: 0x2C }
  - { offsetInCU: 0x7D3E, offset: 0x7D3E, size: 0x8, addend: 0x0, symName: __ZNSt3__120__optional_move_baseINS_12basic_stringIcNS_11char_traitsIcEENS_9allocatorIcEEEELb0EEC2B7v160006Ev, symObjAddr: 0x380, symBinAddr: 0x1000015A0, symSize: 0x2C }
  - { offsetInCU: 0x7D66, offset: 0x7D66, size: 0x8, addend: 0x0, symName: __ZNSt3__120__optional_copy_baseINS_12basic_stringIcNS_11char_traitsIcEENS_9allocatorIcEEEELb0EEC2B7v160006Ev, symObjAddr: 0x3AC, symBinAddr: 0x1000015CC, symSize: 0x2C }
  - { offsetInCU: 0x7D8F, offset: 0x7D8F, size: 0x8, addend: 0x0, symName: __ZNSt3__123__optional_storage_baseINS_12basic_stringIcNS_11char_traitsIcEENS_9allocatorIcEEEELb0EEC2Ev, symObjAddr: 0x3D8, symBinAddr: 0x1000015F8, symSize: 0x2C }
  - { offsetInCU: 0x7DBB, offset: 0x7DBB, size: 0x8, addend: 0x0, symName: __ZNSt3__124__optional_destruct_baseINS_12basic_stringIcNS_11char_traitsIcEENS_9allocatorIcEEEELb0EEC2B7v160006Ev, symObjAddr: 0x404, symBinAddr: 0x100001624, symSize: 0x1C }
  - { offsetInCU: 0x7DE4, offset: 0x7DE4, size: 0x8, addend: 0x0, symName: __ZNSt3__18optionalINS_12basic_stringIcNS_11char_traitsIcEENS_9allocatorIcEEEEED2Ev, symObjAddr: 0x420, symBinAddr: 0x100001640, symSize: 0x2C }
  - { offsetInCU: 0x7E10, offset: 0x7E10, size: 0x8, addend: 0x0, symName: __ZNSt3__127__optional_move_assign_baseINS_12basic_stringIcNS_11char_traitsIcEENS_9allocatorIcEEEELb0EED2Ev, symObjAddr: 0x44C, symBinAddr: 0x10000166C, symSize: 0x2C }
  - { offsetInCU: 0x7E3C, offset: 0x7E3C, size: 0x8, addend: 0x0, symName: __ZNSt3__127__optional_copy_assign_baseINS_12basic_stringIcNS_11char_traitsIcEENS_9allocatorIcEEEELb0EED2Ev, symObjAddr: 0x478, symBinAddr: 0x100001698, symSize: 0x2C }
  - { offsetInCU: 0x7E68, offset: 0x7E68, size: 0x8, addend: 0x0, symName: __ZNSt3__120__optional_move_baseINS_12basic_stringIcNS_11char_traitsIcEENS_9allocatorIcEEEELb0EED2Ev, symObjAddr: 0x4A4, symBinAddr: 0x1000016C4, symSize: 0x2C }
  - { offsetInCU: 0x7E94, offset: 0x7E94, size: 0x8, addend: 0x0, symName: __ZNSt3__120__optional_copy_baseINS_12basic_stringIcNS_11char_traitsIcEENS_9allocatorIcEEEELb0EED2Ev, symObjAddr: 0x4D0, symBinAddr: 0x1000016F0, symSize: 0x2C }
  - { offsetInCU: 0x7EC0, offset: 0x7EC0, size: 0x8, addend: 0x0, symName: __ZNSt3__123__optional_storage_baseINS_12basic_stringIcNS_11char_traitsIcEENS_9allocatorIcEEEELb0EED2Ev, symObjAddr: 0x4FC, symBinAddr: 0x10000171C, symSize: 0x2C }
  - { offsetInCU: 0x7EEB, offset: 0x7EEB, size: 0x8, addend: 0x0, symName: __ZNSt3__124__optional_destruct_baseINS_12basic_stringIcNS_11char_traitsIcEENS_9allocatorIcEEEELb0EED2B7v160006Ev, symObjAddr: 0x528, symBinAddr: 0x100001748, symSize: 0x48 }
  - { offsetInCU: 0x7F14, offset: 0x7F14, size: 0x8, addend: 0x0, symName: __ZNSt3__111char_traitsIcE6lengthEPKc, symObjAddr: 0x75C, symBinAddr: 0x10000197C, symSize: 0x34 }
  - { offsetInCU: 0x7F55, offset: 0x7F55, size: 0x8, addend: 0x0, symName: __ZNKSt3__113basic_ostreamIcNS_11char_traitsIcEEE6sentrycvbB7v160006Ev, symObjAddr: 0x790, symBinAddr: 0x1000019B0, symSize: 0x1C }
  - { offsetInCU: 0x7F79, offset: 0x7F79, size: 0x8, addend: 0x0, symName: __ZNSt3__119ostreambuf_iteratorIcNS_11char_traitsIcEEEC1B7v160006ERNS_13basic_ostreamIcS2_EE, symObjAddr: 0x9EC, symBinAddr: 0x100001C0C, symSize: 0x34 }
  - { offsetInCU: 0x7FB0, offset: 0x7FB0, size: 0x8, addend: 0x0, symName: __ZNKSt3__18ios_base5flagsB7v160006Ev, symObjAddr: 0xA20, symBinAddr: 0x100001C40, symSize: 0x18 }
  - { offsetInCU: 0x7FD7, offset: 0x7FD7, size: 0x8, addend: 0x0, symName: __ZNKSt3__19basic_iosIcNS_11char_traitsIcEEE4fillB7v160006Ev, symObjAddr: 0xA38, symBinAddr: 0x100001C58, symSize: 0x64 }
  - { offsetInCU: 0x7FFE, offset: 0x7FFE, size: 0x8, addend: 0x0, symName: __ZNKSt3__119ostreambuf_iteratorIcNS_11char_traitsIcEEE6failedB7v160006Ev, symObjAddr: 0xA9C, symBinAddr: 0x100001CBC, symSize: 0x24 }
  - { offsetInCU: 0x8023, offset: 0x8023, size: 0x8, addend: 0x0, symName: __ZNSt3__19basic_iosIcNS_11char_traitsIcEEE8setstateB7v160006Ej, symObjAddr: 0xAC0, symBinAddr: 0x100001CE0, symSize: 0x2C }
  - { offsetInCU: 0x8057, offset: 0x8057, size: 0x8, addend: 0x0, symName: __ZNKSt3__18ios_base5widthB7v160006Ev, symObjAddr: 0xAF8, symBinAddr: 0x100001D18, symSize: 0x18 }
  - { offsetInCU: 0x807E, offset: 0x807E, size: 0x8, addend: 0x0, symName: __ZNSt3__115basic_streambufIcNS_11char_traitsIcEEE5sputnB7v160006EPKcl, symObjAddr: 0xB10, symBinAddr: 0x100001D30, symSize: 0x3C }
  - { offsetInCU: 0x80BE, offset: 0x80BE, size: 0x8, addend: 0x0, symName: __ZNSt3__112basic_stringIcNS_11char_traitsIcEENS_9allocatorIcEEEC1B7v160006Emc, symObjAddr: 0xB4C, symBinAddr: 0x100001D6C, symSize: 0x3C }
  - { offsetInCU: 0x8105, offset: 0x8105, size: 0x8, addend: 0x0, symName: __ZNSt3__112basic_stringIcNS_11char_traitsIcEENS_9allocatorIcEEE4dataB7v160006Ev, symObjAddr: 0xB88, symBinAddr: 0x100001DA8, symSize: 0x28 }
  - { offsetInCU: 0x812A, offset: 0x812A, size: 0x8, addend: 0x0, symName: __ZNSt3__18ios_base5widthB7v160006El, symObjAddr: 0xBB0, symBinAddr: 0x100001DD0, symSize: 0x2C }
  - { offsetInCU: 0x816E, offset: 0x816E, size: 0x8, addend: 0x0, symName: __ZNSt3__112basic_stringIcNS_11char_traitsIcEENS_9allocatorIcEEEC2B7v160006Emc, symObjAddr: 0xBDC, symBinAddr: 0x100001DFC, symSize: 0x54 }
  - { offsetInCU: 0x81B9, offset: 0x81B9, size: 0x8, addend: 0x0, symName: __ZNSt3__117__compressed_pairINS_12basic_stringIcNS_11char_traitsIcEENS_9allocatorIcEEE5__repES5_EC1B7v160006INS_18__default_init_tagESA_EEOT_OT0_, symObjAddr: 0xC30, symBinAddr: 0x100001E50, symSize: 0x3C }
  - { offsetInCU: 0x820F, offset: 0x820F, size: 0x8, addend: 0x0, symName: __ZNSt3__117__compressed_pairINS_12basic_stringIcNS_11char_traitsIcEENS_9allocatorIcEEE5__repES5_EC2B7v160006INS_18__default_init_tagESA_EEOT_OT0_, symObjAddr: 0xC7C, symBinAddr: 0x100001E9C, symSize: 0x3C }
  - { offsetInCU: 0x8266, offset: 0x8266, size: 0x8, addend: 0x0, symName: __ZNSt3__122__compressed_pair_elemINS_12basic_stringIcNS_11char_traitsIcEENS_9allocatorIcEEE5__repELi0ELb0EEC2B7v160006ENS_18__default_init_tagE, symObjAddr: 0xCB8, symBinAddr: 0x100001ED8, symSize: 0x14 }
  - { offsetInCU: 0x8299, offset: 0x8299, size: 0x8, addend: 0x0, symName: __ZNSt3__122__compressed_pair_elemINS_9allocatorIcEELi1ELb1EEC2B7v160006ENS_18__default_init_tagE, symObjAddr: 0xCCC, symBinAddr: 0x100001EEC, symSize: 0x2C }
  - { offsetInCU: 0x82CC, offset: 0x82CC, size: 0x8, addend: 0x0, symName: __ZNSt3__19allocatorIcEC2B7v160006Ev, symObjAddr: 0xCF8, symBinAddr: 0x100001F18, symSize: 0x2C }
  - { offsetInCU: 0x82F5, offset: 0x82F5, size: 0x8, addend: 0x0, symName: __ZNSt3__116__non_trivial_ifILb1ENS_9allocatorIcEEEC2B7v160006Ev, symObjAddr: 0xD24, symBinAddr: 0x100001F44, symSize: 0x14 }
  - { offsetInCU: 0x831E, offset: 0x831E, size: 0x8, addend: 0x0, symName: __ZNSt3__112basic_stringIcNS_11char_traitsIcEENS_9allocatorIcEEE13__get_pointerB7v160006Ev, symObjAddr: 0xD4C, symBinAddr: 0x100001F6C, symSize: 0x54 }
  - { offsetInCU: 0x8343, offset: 0x8343, size: 0x8, addend: 0x0, symName: __ZNKSt3__112basic_stringIcNS_11char_traitsIcEENS_9allocatorIcEEE9__is_longB7v160006Ev, symObjAddr: 0xDA0, symBinAddr: 0x100001FC0, symSize: 0x38 }
  - { offsetInCU: 0x8368, offset: 0x8368, size: 0x8, addend: 0x0, symName: __ZNSt3__112basic_stringIcNS_11char_traitsIcEENS_9allocatorIcEEE18__get_long_pointerB7v160006Ev, symObjAddr: 0xDD8, symBinAddr: 0x100001FF8, symSize: 0x28 }
  - { offsetInCU: 0x838D, offset: 0x838D, size: 0x8, addend: 0x0, symName: __ZNSt3__112basic_stringIcNS_11char_traitsIcEENS_9allocatorIcEEE19__get_short_pointerB7v160006Ev, symObjAddr: 0xE00, symBinAddr: 0x100002020, symSize: 0x28 }
  - { offsetInCU: 0x83B2, offset: 0x83B2, size: 0x8, addend: 0x0, symName: __ZNKSt3__117__compressed_pairINS_12basic_stringIcNS_11char_traitsIcEENS_9allocatorIcEEE5__repES5_E5firstB7v160006Ev, symObjAddr: 0xE28, symBinAddr: 0x100002048, symSize: 0x24 }
  - { offsetInCU: 0x83D7, offset: 0x83D7, size: 0x8, addend: 0x0, symName: __ZNKSt3__122__compressed_pair_elemINS_12basic_stringIcNS_11char_traitsIcEENS_9allocatorIcEEE5__repELi0ELb0EE5__getB7v160006Ev, symObjAddr: 0xE4C, symBinAddr: 0x10000206C, symSize: 0x14 }
  - { offsetInCU: 0x83FC, offset: 0x83FC, size: 0x8, addend: 0x0, symName: __ZNSt3__117__compressed_pairINS_12basic_stringIcNS_11char_traitsIcEENS_9allocatorIcEEE5__repES5_E5firstB7v160006Ev, symObjAddr: 0xE60, symBinAddr: 0x100002080, symSize: 0x24 }
  - { offsetInCU: 0x8421, offset: 0x8421, size: 0x8, addend: 0x0, symName: __ZNSt3__122__compressed_pair_elemINS_12basic_stringIcNS_11char_traitsIcEENS_9allocatorIcEEE5__repELi0ELb0EE5__getB7v160006Ev, symObjAddr: 0xE84, symBinAddr: 0x1000020A4, symSize: 0x14 }
  - { offsetInCU: 0x8446, offset: 0x8446, size: 0x8, addend: 0x0, symName: __ZNSt3__114pointer_traitsIPcE10pointer_toB7v160006ERc, symObjAddr: 0xE98, symBinAddr: 0x1000020B8, symSize: 0x14 }
  - { offsetInCU: 0x8468, offset: 0x8468, size: 0x8, addend: 0x0, symName: __ZNSt3__119ostreambuf_iteratorIcNS_11char_traitsIcEEEC2B7v160006ERNS_13basic_ostreamIcS2_EE, symObjAddr: 0xEAC, symBinAddr: 0x1000020CC, symSize: 0x54 }
  - { offsetInCU: 0x849F, offset: 0x849F, size: 0x8, addend: 0x0, symName: __ZNKSt3__19basic_iosIcNS_11char_traitsIcEEE5rdbufB7v160006Ev, symObjAddr: 0xF00, symBinAddr: 0x100002120, symSize: 0x24 }
  - { offsetInCU: 0x84C6, offset: 0x84C6, size: 0x8, addend: 0x0, symName: __ZNKSt3__18ios_base5rdbufB7v160006Ev, symObjAddr: 0xF24, symBinAddr: 0x100002144, symSize: 0x18 }
  - { offsetInCU: 0x84EB, offset: 0x84EB, size: 0x8, addend: 0x0, symName: __ZNSt3__111char_traitsIcE11eq_int_typeEii, symObjAddr: 0xF3C, symBinAddr: 0x10000215C, symSize: 0x28 }
  - { offsetInCU: 0x851C, offset: 0x851C, size: 0x8, addend: 0x0, symName: __ZNSt3__111char_traitsIcE3eofEv, symObjAddr: 0xF64, symBinAddr: 0x100002184, symSize: 0x8 }
  - { offsetInCU: 0x8530, offset: 0x8530, size: 0x8, addend: 0x0, symName: __ZNKSt3__19basic_iosIcNS_11char_traitsIcEEE5widenB7v160006Ec, symObjAddr: 0xF6C, symBinAddr: 0x10000218C, symSize: 0x84 }
  - { offsetInCU: 0x859D, offset: 0x859D, size: 0x8, addend: 0x0, symName: __ZNKSt3__15ctypeIcE5widenB7v160006Ec, symObjAddr: 0x101C, symBinAddr: 0x10000223C, symSize: 0x38 }
  - { offsetInCU: 0x85D1, offset: 0x85D1, size: 0x8, addend: 0x0, symName: __ZNSt3__18ios_base8setstateB7v160006Ej, symObjAddr: 0x1054, symBinAddr: 0x100002274, symSize: 0x34 }
  - { offsetInCU: 0x8606, offset: 0x8606, size: 0x8, addend: 0x0, symName: __ZNSt3__112basic_stringIcNS_11char_traitsIcEENS_9allocatorIcEEEC2B7v160006IDnEEPKc, symObjAddr: 0x10AC, symBinAddr: 0x1000022CC, symSize: 0x60 }
  - { offsetInCU: 0x59, offset: 0x86FF, size: 0x8, addend: 0x0, symName: __ZN6mytest12_GLOBAL__N_110test_casesE, symObjAddr: 0x30E78, symBinAddr: 0x100008000, symSize: 0x0 }
  - { offsetInCU: 0x73, offset: 0x8719, size: 0x8, addend: 0x0, symName: __ZN6mytest12_GLOBAL__N_117test_cases_passedE, symObjAddr: 0x30E90, symBinAddr: 0x100008018, symSize: 0x0 }
  - { offsetInCU: 0x8D, offset: 0x8733, size: 0x8, addend: 0x0, symName: __ZN6mytest12_GLOBAL__N_112check_statusE, symObjAddr: 0x30E94, symBinAddr: 0x10000801C, symSize: 0x0 }
  - { offsetInCU: 0x9C, offset: 0x8742, size: 0x8, addend: 0x0, symName: __ZN6mytest9run_testsEv, symObjAddr: 0x0, symBinAddr: 0x10000232C, symSize: 0x164 }
  - { offsetInCU: 0x124, offset: 0x87CA, size: 0x8, addend: 0x0, symName: __ZN6mytest7get_mapEv, symObjAddr: 0x164, symBinAddr: 0x100002490, symSize: 0xC }
  - { offsetInCU: 0x142, offset: 0x87E8, size: 0x8, addend: 0x0, symName: __ZN6mytest9get_checkEv, symObjAddr: 0x280, symBinAddr: 0x1000025AC, symSize: 0xC }
  - { offsetInCU: 0x160, offset: 0x8806, size: 0x8, addend: 0x0, symName: __ZN6mytest15get_test_failedEv, symObjAddr: 0x344, symBinAddr: 0x100002628, symSize: 0xC }
  - { offsetInCU: 0x17E, offset: 0x8824, size: 0x8, addend: 0x0, symName: __ZN6mytest12check_failedEbRKNSt3__112basic_stringIcNS0_11char_traitsIcEENS0_9allocatorIcEEEES8_iNS0_8optionalIS6_EE, symObjAddr: 0x3FC, symBinAddr: 0x1000026E0, symSize: 0xF0 }
  - { offsetInCU: 0x1E0, offset: 0x8886, size: 0x8, addend: 0x0, symName: __ZN6mytest8get_sizeEv, symObjAddr: 0x584, symBinAddr: 0x100002868, symSize: 0x18 }
  - { offsetInCU: 0x6466, offset: 0xEB0C, size: 0x8, addend: 0x0, symName: __ZNSt3__1neB7v160006ERKNS_14__map_iteratorINS_15__tree_iteratorINS_12__value_typeINS_12basic_stringIcNS_11char_traitsIcEENS_9allocatorIcEEEENS_8functionIFvvEEEEEPNS_11__tree_nodeISC_PvEElEEEESK_, symObjAddr: 0x1E0, symBinAddr: 0x10000250C, symSize: 0x30 }
  - { offsetInCU: 0x64A3, offset: 0xEB49, size: 0x8, addend: 0x0, symName: __ZNSt3__13getB7v160006ILm0EKNS_12basic_stringIcNS_11char_traitsIcEENS_9allocatorIcEEEENS_8functionIFvvEEEEERKNS_13tuple_elementIXT_ENS_4pairIT0_T1_EEE4typeERKSF_, symObjAddr: 0x238, symBinAddr: 0x100002564, symSize: 0x24 }
  - { offsetInCU: 0x64ED, offset: 0xEB93, size: 0x8, addend: 0x0, symName: __ZNSt3__13getB7v160006ILm1EKNS_12basic_stringIcNS_11char_traitsIcEENS_9allocatorIcEEEENS_8functionIFvvEEEEERKNS_13tuple_elementIXT_ENS_4pairIT0_T1_EEE4typeERKSF_, symObjAddr: 0x25C, symBinAddr: 0x100002588, symSize: 0x24 }
  - { offsetInCU: 0x6537, offset: 0xEBDD, size: 0x8, addend: 0x0, symName: __ZNSt3__1lsB7v160006IcNS_11char_traitsIcEENS_9allocatorIcEEEERNS_13basic_ostreamIT_T0_EES9_RKNS_12basic_stringIS6_S7_T1_EE, symObjAddr: 0x2D4, symBinAddr: 0x1000025B8, symSize: 0x4C }
  - { offsetInCU: 0x68A8, offset: 0xEF4E, size: 0x8, addend: 0x0, symName: __ZNSt3__1lsB7v160006INS_11char_traitsIcEEEERNS_13basic_ostreamIcT_EES6_c, symObjAddr: 0x514, symBinAddr: 0x1000027F8, symSize: 0x34 }
  - { offsetInCU: 0x6968, offset: 0xF00E, size: 0x8, addend: 0x0, symName: __ZNSt3__127__throw_bad_optional_accessB7v160006Ev, symObjAddr: 0x5E4, symBinAddr: 0x1000028C8, symSize: 0x38 }
  - { offsetInCU: 0x69B5, offset: 0xF05B, size: 0x8, addend: 0x0, symName: __ZNSt3__1neB7v160006ERKNS_15__tree_iteratorINS_12__value_typeINS_12basic_stringIcNS_11char_traitsIcEENS_9allocatorIcEEEENS_8functionIFvvEEEEEPNS_11__tree_nodeISB_PvEElEESI_, symObjAddr: 0x860, symBinAddr: 0x100002B44, symSize: 0x34 }
  - { offsetInCU: 0x69F2, offset: 0xF098, size: 0x8, addend: 0x0, symName: __ZNSt3__1eqB7v160006ERKNS_15__tree_iteratorINS_12__value_typeINS_12basic_stringIcNS_11char_traitsIcEENS_9allocatorIcEEEENS_8functionIFvvEEEEEPNS_11__tree_nodeISB_PvEElEESI_, symObjAddr: 0x894, symBinAddr: 0x100002B78, symSize: 0x30 }
  - { offsetInCU: 0x6A30, offset: 0xF0D6, size: 0x8, addend: 0x0, symName: __ZNSt3__116__tree_next_iterB7v160006IPNS_15__tree_end_nodeIPNS_16__tree_node_baseIPvEEEES5_EET_T0_, symObjAddr: 0x8FC, symBinAddr: 0x100002BE0, symSize: 0x90 }
  - { offsetInCU: 0x6A6E, offset: 0xF114, size: 0x8, addend: 0x0, symName: __ZNSt3__110__tree_minB7v160006IPNS_16__tree_node_baseIPvEEEET_S5_, symObjAddr: 0x98C, symBinAddr: 0x100002C70, symSize: 0x40 }
  - { offsetInCU: 0x6AA3, offset: 0xF149, size: 0x8, addend: 0x0, symName: __ZNSt3__120__tree_is_left_childB7v160006IPNS_16__tree_node_baseIPvEEEEbT_, symObjAddr: 0x9CC, symBinAddr: 0x100002CB0, symSize: 0x2C }
  - { offsetInCU: 0x6B0B, offset: 0xF1B1, size: 0x8, addend: 0x0, symName: __ZNSt3__17launderB7v160006INS_4pairIKNS_12basic_stringIcNS_11char_traitsIcEENS_9allocatorIcEEEENS_8functionIFvvEEEEEEEPT_SE_, symObjAddr: 0xA98, symBinAddr: 0x100002D70, symSize: 0x24 }
  - { offsetInCU: 0x6B42, offset: 0xF1E8, size: 0x8, addend: 0x0, symName: __ZNSt3__19__launderB7v160006INS_4pairIKNS_12basic_stringIcNS_11char_traitsIcEENS_9allocatorIcEEEENS_8functionIFvvEEEEEEEPT_SE_, symObjAddr: 0xABC, symBinAddr: 0x100002D94, symSize: 0x14 }
  - { offsetInCU: 0x6B7A, offset: 0xF220, size: 0x8, addend: 0x0, symName: __ZNSt3__112__to_addressB7v160006IKcEEPT_S3_, symObjAddr: 0x167C, symBinAddr: 0x100002E24, symSize: 0x14 }
  - { offsetInCU: 0x6BE2, offset: 0xF288, size: 0x8, addend: 0x0, symName: __ZNSt3__125__throw_bad_function_callB7v160006Ev, symObjAddr: 0x17F4, symBinAddr: 0x100002F9C, symSize: 0x38 }
  - { offsetInCU: 0x6CC2, offset: 0xF368, size: 0x8, addend: 0x0, symName: __ZNSt3__119__libcpp_deallocateB7v160006EPvmm, symObjAddr: 0x20AC, symBinAddr: 0x100003854, symSize: 0x60 }
  - { offsetInCU: 0x6D29, offset: 0xF3CF, size: 0x8, addend: 0x0, symName: __ZNSt3__124__is_overaligned_for_newB7v160006Em, symObjAddr: 0x210C, symBinAddr: 0x1000038B4, symSize: 0x20 }
  - { offsetInCU: 0x6D58, offset: 0xF3FE, size: 0x8, addend: 0x0, symName: __ZNSt3__127__do_deallocate_handle_sizeB7v160006IJSt11align_val_tEEEvPvmDpT_, symObjAddr: 0x212C, symBinAddr: 0x1000038D4, symSize: 0x30 }
  - { offsetInCU: 0x6DAD, offset: 0xF453, size: 0x8, addend: 0x0, symName: __ZNSt3__127__do_deallocate_handle_sizeB7v160006IJEEEvPvmDpT_, symObjAddr: 0x215C, symBinAddr: 0x100003904, symSize: 0x28 }
  - { offsetInCU: 0x6DED, offset: 0xF493, size: 0x8, addend: 0x0, symName: __ZNSt3__124__libcpp_operator_deleteB7v160006IJPvSt11align_val_tEEEvDpT_, symObjAddr: 0x2184, symBinAddr: 0x10000392C, symSize: 0x2C }
  - { offsetInCU: 0x6E38, offset: 0xF4DE, size: 0x8, addend: 0x0, symName: __ZNSt3__124__libcpp_operator_deleteB7v160006IJPvEEEvDpT_, symObjAddr: 0x21B0, symBinAddr: 0x100003958, symSize: 0x24 }
  - { offsetInCU: 0x945A, offset: 0x11B00, size: 0x8, addend: 0x0, symName: __ZNSt3__13mapINS_12basic_stringIcNS_11char_traitsIcEENS_9allocatorIcEEEENS_8functionIFvvEEENS_4lessIS6_EENS4_INS_4pairIKS6_S9_EEEEE5beginB7v160006Ev, symObjAddr: 0x170, symBinAddr: 0x10000249C, symSize: 0x38 }
  - { offsetInCU: 0x947F, offset: 0x11B25, size: 0x8, addend: 0x0, symName: __ZNSt3__13mapINS_12basic_stringIcNS_11char_traitsIcEENS_9allocatorIcEEEENS_8functionIFvvEEENS_4lessIS6_EENS4_INS_4pairIKS6_S9_EEEEE3endB7v160006Ev, symObjAddr: 0x1A8, symBinAddr: 0x1000024D4, symSize: 0x38 }
  - { offsetInCU: 0x94A4, offset: 0x11B4A, size: 0x8, addend: 0x0, symName: __ZNKSt3__114__map_iteratorINS_15__tree_iteratorINS_12__value_typeINS_12basic_stringIcNS_11char_traitsIcEENS_9allocatorIcEEEENS_8functionIFvvEEEEEPNS_11__tree_nodeISC_PvEElEEEdeB7v160006Ev, symObjAddr: 0x210, symBinAddr: 0x10000253C, symSize: 0x28 }
  - { offsetInCU: 0x94C9, offset: 0x11B6F, size: 0x8, addend: 0x0, symName: __ZNKSt3__18functionIFvvEEclEv, symObjAddr: 0x320, symBinAddr: 0x100002604, symSize: 0x24 }
  - { offsetInCU: 0x94F0, offset: 0x11B96, size: 0x8, addend: 0x0, symName: __ZNSt3__114__map_iteratorINS_15__tree_iteratorINS_12__value_typeINS_12basic_stringIcNS_11char_traitsIcEENS_9allocatorIcEEEENS_8functionIFvvEEEEEPNS_11__tree_nodeISC_PvEElEEEppB7v160006Ev, symObjAddr: 0x350, symBinAddr: 0x100002634, symSize: 0x2C }
  - { offsetInCU: 0x9515, offset: 0x11BBB, size: 0x8, addend: 0x0, symName: __ZNKSt3__13mapINS_12basic_stringIcNS_11char_traitsIcEENS_9allocatorIcEEEENS_8functionIFvvEEENS_4lessIS6_EENS4_INS_4pairIKS6_S9_EEEEE4sizeB7v160006Ev, symObjAddr: 0x37C, symBinAddr: 0x100002660, symSize: 0x28 }
  - { offsetInCU: 0x953A, offset: 0x11BE0, size: 0x8, addend: 0x0, symName: __ZNSt3__13mapINS_12basic_stringIcNS_11char_traitsIcEENS_9allocatorIcEEEENS_8functionIFvvEEENS_4lessIS6_EENS4_INS_4pairIKS6_S9_EEEEEC1B7v160006Ev, symObjAddr: 0x3A4, symBinAddr: 0x100002688, symSize: 0x2C }
  - { offsetInCU: 0x9562, offset: 0x11C08, size: 0x8, addend: 0x0, symName: __ZNSt3__13mapINS_12basic_stringIcNS_11char_traitsIcEENS_9allocatorIcEEEENS_8functionIFvvEEENS_4lessIS6_EENS4_INS_4pairIKS6_S9_EEEEED1B7v160006Ev, symObjAddr: 0x3D0, symBinAddr: 0x1000026B4, symSize: 0x2C }
  - { offsetInCU: 0x95F8, offset: 0x11C9E, size: 0x8, addend: 0x0, symName: __ZNKSt3__18optionalINS_12basic_stringIcNS_11char_traitsIcEENS_9allocatorIcEEEEEcvbB7v160006Ev, symObjAddr: 0x4EC, symBinAddr: 0x1000027D0, symSize: 0x28 }
  - { offsetInCU: 0x961D, offset: 0x11CC3, size: 0x8, addend: 0x0, symName: __ZNRSt3__18optionalINS_12basic_stringIcNS_11char_traitsIcEENS_9allocatorIcEEEEE5valueB7v160006Ev, symObjAddr: 0x548, symBinAddr: 0x10000282C, symSize: 0x3C }
  - { offsetInCU: 0x9642, offset: 0x11CE8, size: 0x8, addend: 0x0, symName: __ZNSt3__110__get_pairILm0EE3getB7v160006IKNS_12basic_stringIcNS_11char_traitsIcEENS_9allocatorIcEEEENS_8functionIFvvEEEEERKT_RKNS_4pairISD_T0_EE, symObjAddr: 0x59C, symBinAddr: 0x100002880, symSize: 0x14 }
  - { offsetInCU: 0x9678, offset: 0x11D1E, size: 0x8, addend: 0x0, symName: __ZNSt3__110__get_pairILm1EE3getB7v160006IKNS_12basic_stringIcNS_11char_traitsIcEENS_9allocatorIcEEEENS_8functionIFvvEEEEERKT0_RKNS_4pairIT_SD_EE, symObjAddr: 0x5B0, symBinAddr: 0x100002894, symSize: 0x18 }
  - { offsetInCU: 0x96AE, offset: 0x11D54, size: 0x8, addend: 0x0, symName: __ZNKSt3__123__optional_storage_baseINS_12basic_stringIcNS_11char_traitsIcEENS_9allocatorIcEEEELb0EE9has_valueB7v160006Ev, symObjAddr: 0x5C8, symBinAddr: 0x1000028AC, symSize: 0x1C }
  - { offsetInCU: 0x96D3, offset: 0x11D79, size: 0x8, addend: 0x0, symName: __ZNRSt3__123__optional_storage_baseINS_12basic_stringIcNS_11char_traitsIcEENS_9allocatorIcEEEELb0EE5__getB7v160006Ev, symObjAddr: 0x61C, symBinAddr: 0x100002900, symSize: 0x14 }
  - { offsetInCU: 0x971B, offset: 0x11DC1, size: 0x8, addend: 0x0, symName: __ZNSt19bad_optional_accessC1Ev, symObjAddr: 0x630, symBinAddr: 0x100002914, symSize: 0x2C }
  - { offsetInCU: 0x9746, offset: 0x11DEC, size: 0x8, addend: 0x0, symName: __ZNSt19bad_optional_accessC2Ev, symObjAddr: 0x65C, symBinAddr: 0x100002940, symSize: 0x44 }
  - { offsetInCU: 0x9771, offset: 0x11E17, size: 0x8, addend: 0x0, symName: __ZNSt9exceptionC2B7v160006Ev, symObjAddr: 0x6A0, symBinAddr: 0x100002984, symSize: 0x24 }
  - { offsetInCU: 0x979A, offset: 0x11E40, size: 0x8, addend: 0x0, symName: __ZNSt3__16__treeINS_12__value_typeINS_12basic_stringIcNS_11char_traitsIcEENS_9allocatorIcEEEENS_8functionIFvvEEEEENS_19__map_value_compareIS7_SB_NS_4lessIS7_EELb1EEENS5_ISB_EEE5beginB7v160006Ev, symObjAddr: 0x6C4, symBinAddr: 0x1000029A8, symSize: 0x34 }
  - { offsetInCU: 0x97BF, offset: 0x11E65, size: 0x8, addend: 0x0, symName: __ZNSt3__114__map_iteratorINS_15__tree_iteratorINS_12__value_typeINS_12basic_stringIcNS_11char_traitsIcEENS_9allocatorIcEEEENS_8functionIFvvEEEEEPNS_11__tree_nodeISC_PvEElEEEC1B7v160006ESH_, symObjAddr: 0x6F8, symBinAddr: 0x1000029DC, symSize: 0x34 }
  - { offsetInCU: 0x97F6, offset: 0x11E9C, size: 0x8, addend: 0x0, symName: __ZNSt3__16__treeINS_12__value_typeINS_12basic_stringIcNS_11char_traitsIcEENS_9allocatorIcEEEENS_8functionIFvvEEEEENS_19__map_value_compareIS7_SB_NS_4lessIS7_EELb1EEENS5_ISB_EEE12__begin_nodeB7v160006Ev, symObjAddr: 0x72C, symBinAddr: 0x100002A10, symSize: 0x14 }
  - { offsetInCU: 0x981B, offset: 0x11EC1, size: 0x8, addend: 0x0, symName: __ZNSt3__115__tree_iteratorINS_12__value_typeINS_12basic_stringIcNS_11char_traitsIcEENS_9allocatorIcEEEENS_8functionIFvvEEEEEPNS_11__tree_nodeISB_PvEElEC1B7v160006EPNS_15__tree_end_nodeIPNS_16__tree_node_baseISD_EEEE, symObjAddr: 0x740, symBinAddr: 0x100002A24, symSize: 0x34 }
  - { offsetInCU: 0x9852, offset: 0x11EF8, size: 0x8, addend: 0x0, symName: __ZNSt3__115__tree_iteratorINS_12__value_typeINS_12basic_stringIcNS_11char_traitsIcEENS_9allocatorIcEEEENS_8functionIFvvEEEEEPNS_11__tree_nodeISB_PvEElEC2B7v160006EPNS_15__tree_end_nodeIPNS_16__tree_node_baseISD_EEEE, symObjAddr: 0x774, symBinAddr: 0x100002A58, symSize: 0x20 }
  - { offsetInCU: 0x988A, offset: 0x11F30, size: 0x8, addend: 0x0, symName: __ZNSt3__114__map_iteratorINS_15__tree_iteratorINS_12__value_typeINS_12basic_stringIcNS_11char_traitsIcEENS_9allocatorIcEEEENS_8functionIFvvEEEEEPNS_11__tree_nodeISC_PvEElEEEC2B7v160006ESH_, symObjAddr: 0x794, symBinAddr: 0x100002A78, symSize: 0x20 }
  - { offsetInCU: 0x98C2, offset: 0x11F68, size: 0x8, addend: 0x0, symName: __ZNSt3__16__treeINS_12__value_typeINS_12basic_stringIcNS_11char_traitsIcEENS_9allocatorIcEEEENS_8functionIFvvEEEEENS_19__map_value_compareIS7_SB_NS_4lessIS7_EELb1EEENS5_ISB_EEE3endB7v160006Ev, symObjAddr: 0x7B4, symBinAddr: 0x100002A98, symSize: 0x34 }
  - { offsetInCU: 0x98E7, offset: 0x11F8D, size: 0x8, addend: 0x0, symName: __ZNSt3__16__treeINS_12__value_typeINS_12basic_stringIcNS_11char_traitsIcEENS_9allocatorIcEEEENS_8functionIFvvEEEEENS_19__map_value_compareIS7_SB_NS_4lessIS7_EELb1EEENS5_ISB_EEE10__end_nodeB7v160006Ev, symObjAddr: 0x7E8, symBinAddr: 0x100002ACC, symSize: 0x2C }
  - { offsetInCU: 0x990C, offset: 0x11FB2, size: 0x8, addend: 0x0, symName: __ZNSt3__114pointer_traitsIPNS_15__tree_end_nodeIPNS_16__tree_node_baseIPvEEEEE10pointer_toB7v160006ERS6_, symObjAddr: 0x814, symBinAddr: 0x100002AF8, symSize: 0x14 }
  - { offsetInCU: 0x992F, offset: 0x11FD5, size: 0x8, addend: 0x0, symName: __ZNSt3__117__compressed_pairINS_15__tree_end_nodeIPNS_16__tree_node_baseIPvEEEENS_9allocatorINS_11__tree_nodeINS_12__value_typeINS_12basic_stringIcNS_11char_traitsIcEENS7_IcEEEENS_8functionIFvvEEEEES3_EEEEE5firstB7v160006Ev, symObjAddr: 0x828, symBinAddr: 0x100002B0C, symSize: 0x24 }
  - { offsetInCU: 0x9954, offset: 0x11FFA, size: 0x8, addend: 0x0, symName: __ZNSt3__122__compressed_pair_elemINS_15__tree_end_nodeIPNS_16__tree_node_baseIPvEEEELi0ELb0EE5__getB7v160006Ev, symObjAddr: 0x84C, symBinAddr: 0x100002B30, symSize: 0x14 }
  - { offsetInCU: 0x9979, offset: 0x1201F, size: 0x8, addend: 0x0, symName: __ZNSt3__115__tree_iteratorINS_12__value_typeINS_12basic_stringIcNS_11char_traitsIcEENS_9allocatorIcEEEENS_8functionIFvvEEEEEPNS_11__tree_nodeISB_PvEElEppB7v160006Ev, symObjAddr: 0x8C4, symBinAddr: 0x100002BA8, symSize: 0x38 }
  - { offsetInCU: 0x999E, offset: 0x12044, size: 0x8, addend: 0x0, symName: __ZNKSt3__116__tree_node_baseIPvE15__parent_unsafeB7v160006Ev, symObjAddr: 0x9F8, symBinAddr: 0x100002CDC, symSize: 0x18 }
  - { offsetInCU: 0x99C3, offset: 0x12069, size: 0x8, addend: 0x0, symName: __ZNKSt3__115__tree_iteratorINS_12__value_typeINS_12basic_stringIcNS_11char_traitsIcEENS_9allocatorIcEEEENS_8functionIFvvEEEEEPNS_11__tree_nodeISB_PvEElEptB7v160006Ev, symObjAddr: 0xA1C, symBinAddr: 0x100002CF4, symSize: 0x2C }
  - { offsetInCU: 0x99E8, offset: 0x1208E, size: 0x8, addend: 0x0, symName: __ZNSt3__112__value_typeINS_12basic_stringIcNS_11char_traitsIcEENS_9allocatorIcEEEENS_8functionIFvvEEEE11__get_valueB7v160006Ev, symObjAddr: 0xA48, symBinAddr: 0x100002D20, symSize: 0x24 }
  - { offsetInCU: 0x9A0D, offset: 0x120B3, size: 0x8, addend: 0x0, symName: __ZNSt3__114pointer_traitsIPNS_12__value_typeINS_12basic_stringIcNS_11char_traitsIcEENS_9allocatorIcEEEENS_8functionIFvvEEEEEE10pointer_toB7v160006ERSB_, symObjAddr: 0xA6C, symBinAddr: 0x100002D44, symSize: 0x14 }
  - { offsetInCU: 0x9A30, offset: 0x120D6, size: 0x8, addend: 0x0, symName: __ZNKSt3__115__tree_iteratorINS_12__value_typeINS_12basic_stringIcNS_11char_traitsIcEENS_9allocatorIcEEEENS_8functionIFvvEEEEEPNS_11__tree_nodeISB_PvEElE8__get_npB7v160006Ev, symObjAddr: 0xA80, symBinAddr: 0x100002D58, symSize: 0x18 }
  - { offsetInCU: 0x9A73, offset: 0x12119, size: 0x8, addend: 0x0, symName: __ZNKSt3__112basic_stringIcNS_11char_traitsIcEENS_9allocatorIcEEE4dataB7v160006Ev, symObjAddr: 0x1600, symBinAddr: 0x100002DA8, symSize: 0x28 }
  - { offsetInCU: 0x9A98, offset: 0x1213E, size: 0x8, addend: 0x0, symName: __ZNKSt3__112basic_stringIcNS_11char_traitsIcEENS_9allocatorIcEEE4sizeB7v160006Ev, symObjAddr: 0x1628, symBinAddr: 0x100002DD0, symSize: 0x54 }
  - { offsetInCU: 0x9ABD, offset: 0x12163, size: 0x8, addend: 0x0, symName: __ZNKSt3__112basic_stringIcNS_11char_traitsIcEENS_9allocatorIcEEE13__get_pointerB7v160006Ev, symObjAddr: 0x1690, symBinAddr: 0x100002E38, symSize: 0x54 }
  - { offsetInCU: 0x9AE2, offset: 0x12188, size: 0x8, addend: 0x0, symName: __ZNKSt3__112basic_stringIcNS_11char_traitsIcEENS_9allocatorIcEEE18__get_long_pointerB7v160006Ev, symObjAddr: 0x16E4, symBinAddr: 0x100002E8C, symSize: 0x28 }
  - { offsetInCU: 0x9B07, offset: 0x121AD, size: 0x8, addend: 0x0, symName: __ZNKSt3__112basic_stringIcNS_11char_traitsIcEENS_9allocatorIcEEE19__get_short_pointerB7v160006Ev, symObjAddr: 0x170C, symBinAddr: 0x100002EB4, symSize: 0x28 }
  - { offsetInCU: 0x9B2C, offset: 0x121D2, size: 0x8, addend: 0x0, symName: __ZNSt3__114pointer_traitsIPKcE10pointer_toB7v160006ERS1_, symObjAddr: 0x1734, symBinAddr: 0x100002EDC, symSize: 0x14 }
  - { offsetInCU: 0x9B4F, offset: 0x121F5, size: 0x8, addend: 0x0, symName: __ZNKSt3__112basic_stringIcNS_11char_traitsIcEENS_9allocatorIcEEE15__get_long_sizeB7v160006Ev, symObjAddr: 0x1748, symBinAddr: 0x100002EF0, symSize: 0x28 }
  - { offsetInCU: 0x9B74, offset: 0x1221A, size: 0x8, addend: 0x0, symName: __ZNKSt3__112basic_stringIcNS_11char_traitsIcEENS_9allocatorIcEEE16__get_short_sizeB7v160006Ev, symObjAddr: 0x1770, symBinAddr: 0x100002F18, symSize: 0x34 }
  - { offsetInCU: 0x9B99, offset: 0x1223F, size: 0x8, addend: 0x0, symName: __ZNKSt3__110__function12__value_funcIFvvEEclB7v160006Ev, symObjAddr: 0x17A4, symBinAddr: 0x100002F4C, symSize: 0x50 }
  - { offsetInCU: 0x9BC3, offset: 0x12269, size: 0x8, addend: 0x0, symName: __ZNSt3__117bad_function_callC1Ev, symObjAddr: 0x182C, symBinAddr: 0x100002FD4, symSize: 0x2C }
  - { offsetInCU: 0x9BEE, offset: 0x12294, size: 0x8, addend: 0x0, symName: __ZNSt3__117bad_function_callD1Ev, symObjAddr: 0x1858, symBinAddr: 0x100003000, symSize: 0x2C }
  - { offsetInCU: 0x9C16, offset: 0x122BC, size: 0x8, addend: 0x0, symName: __ZNSt3__117bad_function_callC2Ev, symObjAddr: 0x1884, symBinAddr: 0x10000302C, symSize: 0x44 }
  - { offsetInCU: 0x9C41, offset: 0x122E7, size: 0x8, addend: 0x0, symName: __ZNSt3__117bad_function_callD0Ev, symObjAddr: 0x18C8, symBinAddr: 0x100003070, symSize: 0x30 }
  - { offsetInCU: 0x9C69, offset: 0x1230F, size: 0x8, addend: 0x0, symName: __ZNSt3__117bad_function_callD2Ev, symObjAddr: 0x18F8, symBinAddr: 0x1000030A0, symSize: 0x2C }
  - { offsetInCU: 0x9C91, offset: 0x12337, size: 0x8, addend: 0x0, symName: __ZNKSt3__16__treeINS_12__value_typeINS_12basic_stringIcNS_11char_traitsIcEENS_9allocatorIcEEEENS_8functionIFvvEEEEENS_19__map_value_compareIS7_SB_NS_4lessIS7_EELb1EEENS5_ISB_EEE4sizeB7v160006Ev, symObjAddr: 0x1924, symBinAddr: 0x1000030CC, symSize: 0x28 }
  - { offsetInCU: 0x9CB6, offset: 0x1235C, size: 0x8, addend: 0x0, symName: __ZNKSt3__117__compressed_pairImNS_19__map_value_compareINS_12basic_stringIcNS_11char_traitsIcEENS_9allocatorIcEEEENS_12__value_typeIS7_NS_8functionIFvvEEEEENS_4lessIS7_EELb1EEEE5firstB7v160006Ev, symObjAddr: 0x194C, symBinAddr: 0x1000030F4, symSize: 0x24 }
  - { offsetInCU: 0x9CDB, offset: 0x12381, size: 0x8, addend: 0x0, symName: __ZNKSt3__122__compressed_pair_elemImLi0ELb0EE5__getB7v160006Ev, symObjAddr: 0x1970, symBinAddr: 0x100003118, symSize: 0x14 }
  - { offsetInCU: 0x9D00, offset: 0x123A6, size: 0x8, addend: 0x0, symName: __ZNSt3__13mapINS_12basic_stringIcNS_11char_traitsIcEENS_9allocatorIcEEEENS_8functionIFvvEEENS_4lessIS6_EENS4_INS_4pairIKS6_S9_EEEEEC2B7v160006Ev, symObjAddr: 0x1984, symBinAddr: 0x10000312C, symSize: 0x40 }
  - { offsetInCU: 0x9D28, offset: 0x123CE, size: 0x8, addend: 0x0, symName: __ZNSt3__119__map_value_compareINS_12basic_stringIcNS_11char_traitsIcEENS_9allocatorIcEEEENS_12__value_typeIS6_NS_8functionIFvvEEEEENS_4lessIS6_EELb1EEC1B7v160006ESD_, symObjAddr: 0x19C4, symBinAddr: 0x10000316C, symSize: 0x2C }
  - { offsetInCU: 0x9D5F, offset: 0x12405, size: 0x8, addend: 0x0, symName: __ZNSt3__16__treeINS_12__value_typeINS_12basic_stringIcNS_11char_traitsIcEENS_9allocatorIcEEEENS_8functionIFvvEEEEENS_19__map_value_compareIS7_SB_NS_4lessIS7_EELb1EEENS5_ISB_EEEC1ERKSF_, symObjAddr: 0x19F0, symBinAddr: 0x100003198, symSize: 0x34 }
  - { offsetInCU: 0x9D99, offset: 0x1243F, size: 0x8, addend: 0x0, symName: __ZNSt3__119__map_value_compareINS_12basic_stringIcNS_11char_traitsIcEENS_9allocatorIcEEEENS_12__value_typeIS6_NS_8functionIFvvEEEEENS_4lessIS6_EELb1EEC2B7v160006ESD_, symObjAddr: 0x1A24, symBinAddr: 0x1000031CC, symSize: 0x14 }
  - { offsetInCU: 0x9DD1, offset: 0x12477, size: 0x8, addend: 0x0, symName: __ZNSt3__16__treeINS_12__value_typeINS_12basic_stringIcNS_11char_traitsIcEENS_9allocatorIcEEEENS_8functionIFvvEEEEENS_19__map_value_compareIS7_SB_NS_4lessIS7_EELb1EEENS5_ISB_EEEC2ERKSF_, symObjAddr: 0x1A38, symBinAddr: 0x1000031E0, symSize: 0x7C }
  - { offsetInCU: 0x9E0B, offset: 0x124B1, size: 0x8, addend: 0x0, symName: __ZNSt3__117__compressed_pairINS_15__tree_end_nodeIPNS_16__tree_node_baseIPvEEEENS_9allocatorINS_11__tree_nodeINS_12__value_typeINS_12basic_stringIcNS_11char_traitsIcEENS7_IcEEEENS_8functionIFvvEEEEES3_EEEEEC1B7v160006ILb1EvEEv, symObjAddr: 0x1AB4, symBinAddr: 0x10000325C, symSize: 0x2C }
  - { offsetInCU: 0x9E44, offset: 0x124EA, size: 0x8, addend: 0x0, symName: __ZNSt3__117__compressed_pairImNS_19__map_value_compareINS_12basic_stringIcNS_11char_traitsIcEENS_9allocatorIcEEEENS_12__value_typeIS7_NS_8functionIFvvEEEEENS_4lessIS7_EELb1EEEEC1B7v160006IiRKSF_EEOT_OT0_, symObjAddr: 0x1AE0, symBinAddr: 0x100003288, symSize: 0x3C }
  - { offsetInCU: 0x9E9A, offset: 0x12540, size: 0x8, addend: 0x0, symName: __ZNSt3__117__compressed_pairINS_15__tree_end_nodeIPNS_16__tree_node_baseIPvEEEENS_9allocatorINS_11__tree_nodeINS_12__value_typeINS_12basic_stringIcNS_11char_traitsIcEENS7_IcEEEENS_8functionIFvvEEEEES3_EEEEEC2B7v160006ILb1EvEEv, symObjAddr: 0x1B1C, symBinAddr: 0x1000032C4, symSize: 0x34 }
  - { offsetInCU: 0x9ECE, offset: 0x12574, size: 0x8, addend: 0x0, symName: __ZNSt3__122__compressed_pair_elemINS_15__tree_end_nodeIPNS_16__tree_node_baseIPvEEEELi0ELb0EEC2B7v160006ENS_16__value_init_tagE, symObjAddr: 0x1B50, symBinAddr: 0x1000032F8, symSize: 0x2C }
  - { offsetInCU: 0x9F01, offset: 0x125A7, size: 0x8, addend: 0x0, symName: __ZNSt3__122__compressed_pair_elemINS_9allocatorINS_11__tree_nodeINS_12__value_typeINS_12basic_stringIcNS_11char_traitsIcEENS1_IcEEEENS_8functionIFvvEEEEEPvEEEELi1ELb1EEC2B7v160006ENS_16__value_init_tagE, symObjAddr: 0x1B7C, symBinAddr: 0x100003324, symSize: 0x2C }
  - { offsetInCU: 0x9F34, offset: 0x125DA, size: 0x8, addend: 0x0, symName: __ZNSt3__115__tree_end_nodeIPNS_16__tree_node_baseIPvEEEC1B7v160006Ev, symObjAddr: 0x1BA8, symBinAddr: 0x100003350, symSize: 0x2C }
  - { offsetInCU: 0x9F5C, offset: 0x12602, size: 0x8, addend: 0x0, symName: __ZNSt3__115__tree_end_nodeIPNS_16__tree_node_baseIPvEEEC2B7v160006Ev, symObjAddr: 0x1BD4, symBinAddr: 0x10000337C, symSize: 0x18 }
  - { offsetInCU: 0x9F85, offset: 0x1262B, size: 0x8, addend: 0x0, symName: __ZNSt3__19allocatorINS_11__tree_nodeINS_12__value_typeINS_12basic_stringIcNS_11char_traitsIcEENS0_IcEEEENS_8functionIFvvEEEEEPvEEEC2B7v160006Ev, symObjAddr: 0x1BEC, symBinAddr: 0x100003394, symSize: 0x2C }
  - { offsetInCU: 0x9FAD, offset: 0x12653, size: 0x8, addend: 0x0, symName: __ZNSt3__116__non_trivial_ifILb1ENS_9allocatorINS_11__tree_nodeINS_12__value_typeINS_12basic_stringIcNS_11char_traitsIcEENS1_IcEEEENS_8functionIFvvEEEEEPvEEEEEC2B7v160006Ev, symObjAddr: 0x1C18, symBinAddr: 0x1000033C0, symSize: 0x14 }
  - { offsetInCU: 0x9FD6, offset: 0x1267C, size: 0x8, addend: 0x0, symName: __ZNSt3__117__compressed_pairImNS_19__map_value_compareINS_12basic_stringIcNS_11char_traitsIcEENS_9allocatorIcEEEENS_12__value_typeIS7_NS_8functionIFvvEEEEENS_4lessIS7_EELb1EEEEC2B7v160006IiRKSF_EEOT_OT0_, symObjAddr: 0x1C2C, symBinAddr: 0x1000033D4, symSize: 0x44 }
  - { offsetInCU: 0xA02C, offset: 0x126D2, size: 0x8, addend: 0x0, symName: __ZNSt3__122__compressed_pair_elemImLi0ELb0EEC2B7v160006IivEEOT_, symObjAddr: 0x1C70, symBinAddr: 0x100003418, symSize: 0x24 }
  - { offsetInCU: 0xA06E, offset: 0x12714, size: 0x8, addend: 0x0, symName: __ZNSt3__122__compressed_pair_elemINS_19__map_value_compareINS_12basic_stringIcNS_11char_traitsIcEENS_9allocatorIcEEEENS_12__value_typeIS7_NS_8functionIFvvEEEEENS_4lessIS7_EELb1EEELi1ELb1EEC2B7v160006IRKSF_vEEOT_, symObjAddr: 0x1C94, symBinAddr: 0x10000343C, symSize: 0x18 }
  - { offsetInCU: 0xA0B0, offset: 0x12756, size: 0x8, addend: 0x0, symName: __ZNSt3__13mapINS_12basic_stringIcNS_11char_traitsIcEENS_9allocatorIcEEEENS_8functionIFvvEEENS_4lessIS6_EENS4_INS_4pairIKS6_S9_EEEEED2B7v160006Ev, symObjAddr: 0x1CAC, symBinAddr: 0x100003454, symSize: 0x2C }
  - { offsetInCU: 0xA0D8, offset: 0x1277E, size: 0x8, addend: 0x0, symName: __ZNSt3__16__treeINS_12__value_typeINS_12basic_stringIcNS_11char_traitsIcEENS_9allocatorIcEEEENS_8functionIFvvEEEEENS_19__map_value_compareIS7_SB_NS_4lessIS7_EELb1EEENS5_ISB_EEED1Ev, symObjAddr: 0x1CD8, symBinAddr: 0x100003480, symSize: 0x2C }
  - { offsetInCU: 0xA103, offset: 0x127A9, size: 0x8, addend: 0x0, symName: __ZNSt3__16__treeINS_12__value_typeINS_12basic_stringIcNS_11char_traitsIcEENS_9allocatorIcEEEENS_8functionIFvvEEEEENS_19__map_value_compareIS7_SB_NS_4lessIS7_EELb1EEENS5_ISB_EEED2Ev, symObjAddr: 0x1D04, symBinAddr: 0x1000034AC, symSize: 0x38 }
  - { offsetInCU: 0xA12E, offset: 0x127D4, size: 0x8, addend: 0x0, symName: __ZNSt3__16__treeINS_12__value_typeINS_12basic_stringIcNS_11char_traitsIcEENS_9allocatorIcEEEENS_8functionIFvvEEEEENS_19__map_value_compareIS7_SB_NS_4lessIS7_EELb1EEENS5_ISB_EEE7destroyEPNS_11__tree_nodeISB_PvEE, symObjAddr: 0x1D3C, symBinAddr: 0x1000034E4, symSize: 0xAC }
  - { offsetInCU: 0xA179, offset: 0x1281F, size: 0x8, addend: 0x0, symName: __ZNKSt3__16__treeINS_12__value_typeINS_12basic_stringIcNS_11char_traitsIcEENS_9allocatorIcEEEENS_8functionIFvvEEEEENS_19__map_value_compareIS7_SB_NS_4lessIS7_EELb1EEENS5_ISB_EEE6__rootB7v160006Ev, symObjAddr: 0x1DE8, symBinAddr: 0x100003590, symSize: 0x28 }
  - { offsetInCU: 0xA19E, offset: 0x12844, size: 0x8, addend: 0x0, symName: __ZNSt3__16__treeINS_12__value_typeINS_12basic_stringIcNS_11char_traitsIcEENS_9allocatorIcEEEENS_8functionIFvvEEEEENS_19__map_value_compareIS7_SB_NS_4lessIS7_EELb1EEENS5_ISB_EEE12__node_allocB7v160006Ev, symObjAddr: 0x1E10, symBinAddr: 0x1000035B8, symSize: 0x28 }
  - { offsetInCU: 0xA1C8, offset: 0x1286E, size: 0x8, addend: 0x0, symName: __ZNSt3__116allocator_traitsINS_9allocatorINS_11__tree_nodeINS_12__value_typeINS_12basic_stringIcNS_11char_traitsIcEENS1_IcEEEENS_8functionIFvvEEEEEPvEEEEE7destroyB7v160006INS_4pairIKS8_SB_EEvvEEvRSF_PT_, symObjAddr: 0x1E38, symBinAddr: 0x1000035E0, symSize: 0x28 }
  - { offsetInCU: 0xA204, offset: 0x128AA, size: 0x8, addend: 0x0, symName: __ZNSt3__122__tree_key_value_typesINS_12__value_typeINS_12basic_stringIcNS_11char_traitsIcEENS_9allocatorIcEEEENS_8functionIFvvEEEEEE9__get_ptrB7v160006ERSB_, symObjAddr: 0x1E60, symBinAddr: 0x100003608, symSize: 0x24 }
  - { offsetInCU: 0xA228, offset: 0x128CE, size: 0x8, addend: 0x0, symName: __ZNSt3__116allocator_traitsINS_9allocatorINS_11__tree_nodeINS_12__value_typeINS_12basic_stringIcNS_11char_traitsIcEENS1_IcEEEENS_8functionIFvvEEEEEPvEEEEE10deallocateB7v160006ERSF_PSE_m, symObjAddr: 0x1E84, symBinAddr: 0x10000362C, symSize: 0x34 }
  - { offsetInCU: 0xA26A, offset: 0x12910, size: 0x8, addend: 0x0, symName: __ZNSt3__117__compressed_pairINS_15__tree_end_nodeIPNS_16__tree_node_baseIPvEEEENS_9allocatorINS_11__tree_nodeINS_12__value_typeINS_12basic_stringIcNS_11char_traitsIcEENS7_IcEEEENS_8functionIFvvEEEEES3_EEEEE6secondB7v160006Ev, symObjAddr: 0x1EB8, symBinAddr: 0x100003660, symSize: 0x24 }
  - { offsetInCU: 0xA28F, offset: 0x12935, size: 0x8, addend: 0x0, symName: __ZNSt3__122__compressed_pair_elemINS_9allocatorINS_11__tree_nodeINS_12__value_typeINS_12basic_stringIcNS_11char_traitsIcEENS1_IcEEEENS_8functionIFvvEEEEEPvEEEELi1ELb1EE5__getB7v160006Ev, symObjAddr: 0x1EDC, symBinAddr: 0x100003684, symSize: 0x14 }
  - { offsetInCU: 0xA2B4, offset: 0x1295A, size: 0x8, addend: 0x0, symName: __ZNSt3__14pairIKNS_12basic_stringIcNS_11char_traitsIcEENS_9allocatorIcEEEENS_8functionIFvvEEEED1Ev, symObjAddr: 0x1EF0, symBinAddr: 0x100003698, symSize: 0x2C }
  - { offsetInCU: 0xA2DF, offset: 0x12985, size: 0x8, addend: 0x0, symName: __ZNSt3__14pairIKNS_12basic_stringIcNS_11char_traitsIcEENS_9allocatorIcEEEENS_8functionIFvvEEEED2Ev, symObjAddr: 0x1F1C, symBinAddr: 0x1000036C4, symSize: 0x38 }
  - { offsetInCU: 0xA30A, offset: 0x129B0, size: 0x8, addend: 0x0, symName: __ZNSt3__18functionIFvvEED1Ev, symObjAddr: 0x1F54, symBinAddr: 0x1000036FC, symSize: 0x2C }
  - { offsetInCU: 0xA335, offset: 0x129DB, size: 0x8, addend: 0x0, symName: __ZNSt3__18functionIFvvEED2Ev, symObjAddr: 0x1F80, symBinAddr: 0x100003728, symSize: 0x2C }
  - { offsetInCU: 0xA360, offset: 0x12A06, size: 0x8, addend: 0x0, symName: __ZNSt3__110__function12__value_funcIFvvEED1B7v160006Ev, symObjAddr: 0x1FAC, symBinAddr: 0x100003754, symSize: 0x2C }
  - { offsetInCU: 0xA388, offset: 0x12A2E, size: 0x8, addend: 0x0, symName: __ZNSt3__110__function12__value_funcIFvvEED2B7v160006Ev, symObjAddr: 0x1FD8, symBinAddr: 0x100003780, symSize: 0x90 }
  - { offsetInCU: 0xA3B0, offset: 0x12A56, size: 0x8, addend: 0x0, symName: __ZNSt3__19allocatorINS_11__tree_nodeINS_12__value_typeINS_12basic_stringIcNS_11char_traitsIcEENS0_IcEEEENS_8functionIFvvEEEEEPvEEE10deallocateB7v160006EPSD_m, symObjAddr: 0x2068, symBinAddr: 0x100003810, symSize: 0x44 }
  - { offsetInCU: 0xA3F1, offset: 0x12A97, size: 0x8, addend: 0x0, symName: __ZNKSt3__16__treeINS_12__value_typeINS_12basic_stringIcNS_11char_traitsIcEENS_9allocatorIcEEEENS_8functionIFvvEEEEENS_19__map_value_compareIS7_SB_NS_4lessIS7_EELb1EEENS5_ISB_EEE10__end_nodeB7v160006Ev, symObjAddr: 0x21D4, symBinAddr: 0x10000397C, symSize: 0x2C }
  - { offsetInCU: 0xA416, offset: 0x12ABC, size: 0x8, addend: 0x0, symName: __ZNKSt3__117__compressed_pairINS_15__tree_end_nodeIPNS_16__tree_node_baseIPvEEEENS_9allocatorINS_11__tree_nodeINS_12__value_typeINS_12basic_stringIcNS_11char_traitsIcEENS7_IcEEEENS_8functionIFvvEEEEES3_EEEEE5firstB7v160006Ev, symObjAddr: 0x2200, symBinAddr: 0x1000039A8, symSize: 0x24 }
  - { offsetInCU: 0xA43B, offset: 0x12AE1, size: 0x8, addend: 0x0, symName: __ZNKSt3__122__compressed_pair_elemINS_15__tree_end_nodeIPNS_16__tree_node_baseIPvEEEELi0ELb0EE5__getB7v160006Ev, symObjAddr: 0x2224, symBinAddr: 0x1000039CC, symSize: 0x14 }
...
