---
triple:          'arm64-apple-darwin'
binary-path:     compiled-test
relocations:
  - { offsetInCU: 0x58, offset: 0x58, size: 0x8, addend: 0x0, symName: __ZN6mytest12_GLOBAL__N_110test_casesE, symObjAddr: 0x30E78, symBinAddr: 0x10000C000, symSize: 0x0 }
  - { offsetInCU: 0x71, offset: 0x71, size: 0x8, addend: 0x0, symName: __ZN6mytest12_GLOBAL__N_117test_cases_passedE, symObjAddr: 0x30E90, symBinAddr: 0x10000C018, symSize: 0x0 }
  - { offsetInCU: 0x8A, offset: 0x8A, size: 0x8, addend: 0x0, symName: __ZN6mytest12_GLOBAL__N_112check_statusE, symObjAddr: 0x30E94, symBinAddr: 0x10000C01C, symSize: 0x0 }
  - { offsetInCU: 0x98, offset: 0x98, size: 0x8, addend: 0x0, symName: __ZN6mytest9run_testsEv, symObjAddr: 0x0, symBinAddr: 0x1000018AC, symSize: 0x164 }
  - { offsetInCU: 0x118, offset: 0x118, size: 0x8, addend: 0x0, symName: __ZN6mytest7get_mapEv, symObjAddr: 0x164, symBinAddr: 0x100001A10, symSize: 0xC }
  - { offsetInCU: 0x135, offset: 0x135, size: 0x8, addend: 0x0, symName: __ZN6mytest9get_checkEv, symObjAddr: 0x280, symBinAddr: 0x100001B2C, symSize: 0xC }
  - { offsetInCU: 0x152, offset: 0x152, size: 0x8, addend: 0x0, symName: __ZN6mytest15get_test_failedEv, symObjAddr: 0x344, symBinAddr: 0x100001BF0, symSize: 0xC }
  - { offsetInCU: 0x16F, offset: 0x16F, size: 0x8, addend: 0x0, symName: __ZN6mytest12check_failedEbRKNSt3__112basic_stringIcNS0_11char_traitsIcEENS0_9allocatorIcEEEES8_iNS0_8optionalIS6_EE, symObjAddr: 0x3FC, symBinAddr: 0x100001CA8, symSize: 0xF0 }
  - { offsetInCU: 0x1D0, offset: 0x1D0, size: 0x8, addend: 0x0, symName: __ZN6mytest8get_sizeEv, symObjAddr: 0x584, symBinAddr: 0x100001E30, symSize: 0x18 }
  - { offsetInCU: 0x55A1, offset: 0x55A1, size: 0x8, addend: 0x0, symName: __ZNSt3__124__put_character_sequenceB7v160006IcNS_11char_traitsIcEEEERNS_13basic_ostreamIT_T0_EES7_PKS4_m, symObjAddr: 0xAD0, symBinAddr: 0x10000237C, symSize: 0x1EC }
  - { offsetInCU: 0x6F22, offset: 0x6F22, size: 0x8, addend: 0x0, symName: __ZNSt3__1neB7v160006ERKNS_14__map_iteratorINS_15__tree_iteratorINS_12__value_typeINS_12basic_stringIcNS_11char_traitsIcEENS_9allocatorIcEEEENS_8functionIFvvEEEEEPNS_11__tree_nodeISC_PvEElEEEESK_, symObjAddr: 0x1E0, symBinAddr: 0x100001A8C, symSize: 0x30 }
  - { offsetInCU: 0x6F5F, offset: 0x6F5F, size: 0x8, addend: 0x0, symName: __ZNSt3__13getB7v160006ILm0EKNS_12basic_stringIcNS_11char_traitsIcEENS_9allocatorIcEEEENS_8functionIFvvEEEEERKNS_13tuple_elementIXT_ENS_4pairIT0_T1_EEE4typeERKSF_, symObjAddr: 0x238, symBinAddr: 0x100001AE4, symSize: 0x24 }
  - { offsetInCU: 0x6FA9, offset: 0x6FA9, size: 0x8, addend: 0x0, symName: __ZNSt3__13getB7v160006ILm1EKNS_12basic_stringIcNS_11char_traitsIcEENS_9allocatorIcEEEENS_8functionIFvvEEEEERKNS_13tuple_elementIXT_ENS_4pairIT0_T1_EEE4typeERKSF_, symObjAddr: 0x25C, symBinAddr: 0x100001B08, symSize: 0x24 }
  - { offsetInCU: 0x6FF3, offset: 0x6FF3, size: 0x8, addend: 0x0, symName: __ZNSt3__1lsB7v160006INS_11char_traitsIcEEEERNS_13basic_ostreamIcT_EES6_PKc, symObjAddr: 0x28C, symBinAddr: 0x100001B38, symSize: 0x48 }
  - { offsetInCU: 0x7039, offset: 0x7039, size: 0x8, addend: 0x0, symName: __ZNSt3__1lsB7v160006IcNS_11char_traitsIcEENS_9allocatorIcEEEERNS_13basic_ostreamIT_T0_EES9_RKNS_12basic_stringIS6_S7_T1_EE, symObjAddr: 0x2D4, symBinAddr: 0x100001B80, symSize: 0x4C }
  - { offsetInCU: 0x7674, offset: 0x7674, size: 0x8, addend: 0x0, symName: __ZNSt3__1lsB7v160006INS_11char_traitsIcEEEERNS_13basic_ostreamIcT_EES6_c, symObjAddr: 0x514, symBinAddr: 0x100001DC0, symSize: 0x34 }
  - { offsetInCU: 0x7734, offset: 0x7734, size: 0x8, addend: 0x0, symName: __ZNSt3__127__throw_bad_optional_accessB7v160006Ev, symObjAddr: 0x5E4, symBinAddr: 0x100001E90, symSize: 0x38 }
  - { offsetInCU: 0x7780, offset: 0x7780, size: 0x8, addend: 0x0, symName: __ZNSt3__1neB7v160006ERKNS_15__tree_iteratorINS_12__value_typeINS_12basic_stringIcNS_11char_traitsIcEENS_9allocatorIcEEEENS_8functionIFvvEEEEEPNS_11__tree_nodeISB_PvEElEESI_, symObjAddr: 0x860, symBinAddr: 0x10000210C, symSize: 0x34 }
  - { offsetInCU: 0x77BD, offset: 0x77BD, size: 0x8, addend: 0x0, symName: __ZNSt3__1eqB7v160006ERKNS_15__tree_iteratorINS_12__value_typeINS_12basic_stringIcNS_11char_traitsIcEENS_9allocatorIcEEEENS_8functionIFvvEEEEEPNS_11__tree_nodeISB_PvEElEESI_, symObjAddr: 0x894, symBinAddr: 0x100002140, symSize: 0x30 }
  - { offsetInCU: 0x77FA, offset: 0x77FA, size: 0x8, addend: 0x0, symName: __ZNSt3__116__tree_next_iterB7v160006IPNS_15__tree_end_nodeIPNS_16__tree_node_baseIPvEEEES5_EET_T0_, symObjAddr: 0x8FC, symBinAddr: 0x1000021A8, symSize: 0x90 }
  - { offsetInCU: 0x7838, offset: 0x7838, size: 0x8, addend: 0x0, symName: __ZNSt3__110__tree_minB7v160006IPNS_16__tree_node_baseIPvEEEET_S5_, symObjAddr: 0x98C, symBinAddr: 0x100002238, symSize: 0x40 }
  - { offsetInCU: 0x786D, offset: 0x786D, size: 0x8, addend: 0x0, symName: __ZNSt3__120__tree_is_left_childB7v160006IPNS_16__tree_node_baseIPvEEEEbT_, symObjAddr: 0x9CC, symBinAddr: 0x100002278, symSize: 0x2C }
  - { offsetInCU: 0x78D5, offset: 0x78D5, size: 0x8, addend: 0x0, symName: __ZNSt3__17launderB7v160006INS_4pairIKNS_12basic_stringIcNS_11char_traitsIcEENS_9allocatorIcEEEENS_8functionIFvvEEEEEEEPT_SE_, symObjAddr: 0xA98, symBinAddr: 0x100002344, symSize: 0x24 }
  - { offsetInCU: 0x790C, offset: 0x790C, size: 0x8, addend: 0x0, symName: __ZNSt3__19__launderB7v160006INS_4pairIKNS_12basic_stringIcNS_11char_traitsIcEENS_9allocatorIcEEEENS_8functionIFvvEEEEEEEPT_SE_, symObjAddr: 0xABC, symBinAddr: 0x100002368, symSize: 0x14 }
  - { offsetInCU: 0x7943, offset: 0x7943, size: 0x8, addend: 0x0, symName: __ZNSt3__116__pad_and_outputB7v160006IcNS_11char_traitsIcEEEENS_19ostreambuf_iteratorIT_T0_EES6_PKS4_S8_S8_RNS_8ios_baseES4_, symObjAddr: 0xD0C, symBinAddr: 0x1000025B8, symSize: 0x240 }
  - { offsetInCU: 0x7A12, offset: 0x7A12, size: 0x8, addend: 0x0, symName: __ZNSt3__119__debug_db_insert_cB7v160006INS_12basic_stringIcNS_11char_traitsIcEENS_9allocatorIcEEEEEEvPT_, symObjAddr: 0x11C0, symBinAddr: 0x100002A6C, symSize: 0x10 }
  - { offsetInCU: 0x7A43, offset: 0x7A43, size: 0x8, addend: 0x0, symName: __ZNSt3__112__to_addressB7v160006IcEEPT_S2_, symObjAddr: 0x128C, symBinAddr: 0x100002B38, symSize: 0x14 }
  - { offsetInCU: 0x7AAB, offset: 0x7AAB, size: 0x8, addend: 0x0, symName: __ZNSt3__19use_facetB7v160006INS_5ctypeIcEEEERKT_RKNS_6localeE, symObjAddr: 0x1544, symBinAddr: 0x100002DF0, symSize: 0x2C }
  - { offsetInCU: 0x7F7A, offset: 0x7F7A, size: 0x8, addend: 0x0, symName: __ZNSt3__118__constexpr_strlenB7v160006EPKc, symObjAddr: 0x15DC, symBinAddr: 0x100002E88, symSize: 0x24 }
  - { offsetInCU: 0x7FA6, offset: 0x7FA6, size: 0x8, addend: 0x0, symName: __ZNSt3__112__to_addressB7v160006IKcEEPT_S3_, symObjAddr: 0x167C, symBinAddr: 0x100002F28, symSize: 0x14 }
  - { offsetInCU: 0x800E, offset: 0x800E, size: 0x8, addend: 0x0, symName: __ZNSt3__125__throw_bad_function_callB7v160006Ev, symObjAddr: 0x17F4, symBinAddr: 0x1000030A0, symSize: 0x38 }
  - { offsetInCU: 0x80EB, offset: 0x80EB, size: 0x8, addend: 0x0, symName: __ZNSt3__119__libcpp_deallocateB7v160006EPvmm, symObjAddr: 0x20AC, symBinAddr: 0x100003958, symSize: 0x60 }
  - { offsetInCU: 0x8150, offset: 0x8150, size: 0x8, addend: 0x0, symName: __ZNSt3__124__is_overaligned_for_newB7v160006Em, symObjAddr: 0x210C, symBinAddr: 0x1000039B8, symSize: 0x20 }
  - { offsetInCU: 0x817E, offset: 0x817E, size: 0x8, addend: 0x0, symName: __ZNSt3__127__do_deallocate_handle_sizeB7v160006IJSt11align_val_tEEEvPvmDpT_, symObjAddr: 0x212C, symBinAddr: 0x1000039D8, symSize: 0x30 }
  - { offsetInCU: 0x81D1, offset: 0x81D1, size: 0x8, addend: 0x0, symName: __ZNSt3__127__do_deallocate_handle_sizeB7v160006IJEEEvPvmDpT_, symObjAddr: 0x215C, symBinAddr: 0x100003A08, symSize: 0x28 }
  - { offsetInCU: 0x820F, offset: 0x820F, size: 0x8, addend: 0x0, symName: __ZNSt3__124__libcpp_operator_deleteB7v160006IJPvSt11align_val_tEEEvDpT_, symObjAddr: 0x2184, symBinAddr: 0x100003A30, symSize: 0x2C }
  - { offsetInCU: 0x8258, offset: 0x8258, size: 0x8, addend: 0x0, symName: __ZNSt3__124__libcpp_operator_deleteB7v160006IJPvEEEvDpT_, symObjAddr: 0x21B0, symBinAddr: 0x100003A5C, symSize: 0x24 }
  - { offsetInCU: 0xAF17, offset: 0xAF17, size: 0x8, addend: 0x0, symName: __ZNSt3__13mapINS_12basic_stringIcNS_11char_traitsIcEENS_9allocatorIcEEEENS_8functionIFvvEEENS_4lessIS6_EENS4_INS_4pairIKS6_S9_EEEEE5beginB7v160006Ev, symObjAddr: 0x170, symBinAddr: 0x100001A1C, symSize: 0x38 }
  - { offsetInCU: 0xAF3D, offset: 0xAF3D, size: 0x8, addend: 0x0, symName: __ZNSt3__13mapINS_12basic_stringIcNS_11char_traitsIcEENS_9allocatorIcEEEENS_8functionIFvvEEENS_4lessIS6_EENS4_INS_4pairIKS6_S9_EEEEE3endB7v160006Ev, symObjAddr: 0x1A8, symBinAddr: 0x100001A54, symSize: 0x38 }
  - { offsetInCU: 0xAF63, offset: 0xAF63, size: 0x8, addend: 0x0, symName: __ZNKSt3__114__map_iteratorINS_15__tree_iteratorINS_12__value_typeINS_12basic_stringIcNS_11char_traitsIcEENS_9allocatorIcEEEENS_8functionIFvvEEEEEPNS_11__tree_nodeISC_PvEElEEEdeB7v160006Ev, symObjAddr: 0x210, symBinAddr: 0x100001ABC, symSize: 0x28 }
  - { offsetInCU: 0xAF89, offset: 0xAF89, size: 0x8, addend: 0x0, symName: __ZNKSt3__18functionIFvvEEclEv, symObjAddr: 0x320, symBinAddr: 0x100001BCC, symSize: 0x24 }
  - { offsetInCU: 0xAFB1, offset: 0xAFB1, size: 0x8, addend: 0x0, symName: __ZNSt3__114__map_iteratorINS_15__tree_iteratorINS_12__value_typeINS_12basic_stringIcNS_11char_traitsIcEENS_9allocatorIcEEEENS_8functionIFvvEEEEEPNS_11__tree_nodeISC_PvEElEEEppB7v160006Ev, symObjAddr: 0x350, symBinAddr: 0x100001BFC, symSize: 0x2C }
  - { offsetInCU: 0xAFD7, offset: 0xAFD7, size: 0x8, addend: 0x0, symName: __ZNKSt3__13mapINS_12basic_stringIcNS_11char_traitsIcEENS_9allocatorIcEEEENS_8functionIFvvEEENS_4lessIS6_EENS4_INS_4pairIKS6_S9_EEEEE4sizeB7v160006Ev, symObjAddr: 0x37C, symBinAddr: 0x100001C28, symSize: 0x28 }
  - { offsetInCU: 0xAFFD, offset: 0xAFFD, size: 0x8, addend: 0x0, symName: __ZNSt3__13mapINS_12basic_stringIcNS_11char_traitsIcEENS_9allocatorIcEEEENS_8functionIFvvEEENS_4lessIS6_EENS4_INS_4pairIKS6_S9_EEEEEC1B7v160006Ev, symObjAddr: 0x3A4, symBinAddr: 0x100001C50, symSize: 0x2C }
  - { offsetInCU: 0xB027, offset: 0xB027, size: 0x8, addend: 0x0, symName: __ZNSt3__13mapINS_12basic_stringIcNS_11char_traitsIcEENS_9allocatorIcEEEENS_8functionIFvvEEENS_4lessIS6_EENS4_INS_4pairIKS6_S9_EEEEED1B7v160006Ev, symObjAddr: 0x3D0, symBinAddr: 0x100001C7C, symSize: 0x2C }
  - { offsetInCU: 0xB12D, offset: 0xB12D, size: 0x8, addend: 0x0, symName: __ZNKSt3__18optionalINS_12basic_stringIcNS_11char_traitsIcEENS_9allocatorIcEEEEEcvbB7v160006Ev, symObjAddr: 0x4EC, symBinAddr: 0x100001D98, symSize: 0x28 }
  - { offsetInCU: 0xB153, offset: 0xB153, size: 0x8, addend: 0x0, symName: __ZNRSt3__18optionalINS_12basic_stringIcNS_11char_traitsIcEENS_9allocatorIcEEEEE5valueB7v160006Ev, symObjAddr: 0x548, symBinAddr: 0x100001DF4, symSize: 0x3C }
  - { offsetInCU: 0xB179, offset: 0xB179, size: 0x8, addend: 0x0, symName: __ZNSt3__110__get_pairILm0EE3getB7v160006IKNS_12basic_stringIcNS_11char_traitsIcEENS_9allocatorIcEEEENS_8functionIFvvEEEEERKT_RKNS_4pairISD_T0_EE, symObjAddr: 0x59C, symBinAddr: 0x100001E48, symSize: 0x14 }
  - { offsetInCU: 0xB1AF, offset: 0xB1AF, size: 0x8, addend: 0x0, symName: __ZNSt3__110__get_pairILm1EE3getB7v160006IKNS_12basic_stringIcNS_11char_traitsIcEENS_9allocatorIcEEEENS_8functionIFvvEEEEERKT0_RKNS_4pairIT_SD_EE, symObjAddr: 0x5B0, symBinAddr: 0x100001E5C, symSize: 0x18 }
  - { offsetInCU: 0xB1E5, offset: 0xB1E5, size: 0x8, addend: 0x0, symName: __ZNKSt3__123__optional_storage_baseINS_12basic_stringIcNS_11char_traitsIcEENS_9allocatorIcEEEELb0EE9has_valueB7v160006Ev, symObjAddr: 0x5C8, symBinAddr: 0x100001E74, symSize: 0x1C }
  - { offsetInCU: 0xB20B, offset: 0xB20B, size: 0x8, addend: 0x0, symName: __ZNRSt3__123__optional_storage_baseINS_12basic_stringIcNS_11char_traitsIcEENS_9allocatorIcEEEELb0EE5__getB7v160006Ev, symObjAddr: 0x61C, symBinAddr: 0x100001EC8, symSize: 0x14 }
  - { offsetInCU: 0xB254, offset: 0xB254, size: 0x8, addend: 0x0, symName: __ZNSt19bad_optional_accessC1Ev, symObjAddr: 0x630, symBinAddr: 0x100001EDC, symSize: 0x2C }
  - { offsetInCU: 0xB280, offset: 0xB280, size: 0x8, addend: 0x0, symName: __ZNSt19bad_optional_accessC2Ev, symObjAddr: 0x65C, symBinAddr: 0x100001F08, symSize: 0x44 }
  - { offsetInCU: 0xB2AC, offset: 0xB2AC, size: 0x8, addend: 0x0, symName: __ZNSt9exceptionC2B7v160006Ev, symObjAddr: 0x6A0, symBinAddr: 0x100001F4C, symSize: 0x24 }
  - { offsetInCU: 0xB2D6, offset: 0xB2D6, size: 0x8, addend: 0x0, symName: __ZNSt3__16__treeINS_12__value_typeINS_12basic_stringIcNS_11char_traitsIcEENS_9allocatorIcEEEENS_8functionIFvvEEEEENS_19__map_value_compareIS7_SB_NS_4lessIS7_EELb1EEENS5_ISB_EEE5beginB7v160006Ev, symObjAddr: 0x6C4, symBinAddr: 0x100001F70, symSize: 0x34 }
  - { offsetInCU: 0xB2FC, offset: 0xB2FC, size: 0x8, addend: 0x0, symName: __ZNSt3__114__map_iteratorINS_15__tree_iteratorINS_12__value_typeINS_12basic_stringIcNS_11char_traitsIcEENS_9allocatorIcEEEENS_8functionIFvvEEEEEPNS_11__tree_nodeISC_PvEElEEEC1B7v160006ESH_, symObjAddr: 0x6F8, symBinAddr: 0x100001FA4, symSize: 0x34 }
  - { offsetInCU: 0xB335, offset: 0xB335, size: 0x8, addend: 0x0, symName: __ZNSt3__16__treeINS_12__value_typeINS_12basic_stringIcNS_11char_traitsIcEENS_9allocatorIcEEEENS_8functionIFvvEEEEENS_19__map_value_compareIS7_SB_NS_4lessIS7_EELb1EEENS5_ISB_EEE12__begin_nodeB7v160006Ev, symObjAddr: 0x72C, symBinAddr: 0x100001FD8, symSize: 0x14 }
  - { offsetInCU: 0xB35B, offset: 0xB35B, size: 0x8, addend: 0x0, symName: __ZNSt3__115__tree_iteratorINS_12__value_typeINS_12basic_stringIcNS_11char_traitsIcEENS_9allocatorIcEEEENS_8functionIFvvEEEEEPNS_11__tree_nodeISB_PvEElEC1B7v160006EPNS_15__tree_end_nodeIPNS_16__tree_node_baseISD_EEEE, symObjAddr: 0x740, symBinAddr: 0x100001FEC, symSize: 0x34 }
  - { offsetInCU: 0xB394, offset: 0xB394, size: 0x8, addend: 0x0, symName: __ZNSt3__115__tree_iteratorINS_12__value_typeINS_12basic_stringIcNS_11char_traitsIcEENS_9allocatorIcEEEENS_8functionIFvvEEEEEPNS_11__tree_nodeISB_PvEElEC2B7v160006EPNS_15__tree_end_nodeIPNS_16__tree_node_baseISD_EEEE, symObjAddr: 0x774, symBinAddr: 0x100002020, symSize: 0x20 }
  - { offsetInCU: 0xB3CD, offset: 0xB3CD, size: 0x8, addend: 0x0, symName: __ZNSt3__114__map_iteratorINS_15__tree_iteratorINS_12__value_typeINS_12basic_stringIcNS_11char_traitsIcEENS_9allocatorIcEEEENS_8functionIFvvEEEEEPNS_11__tree_nodeISC_PvEElEEEC2B7v160006ESH_, symObjAddr: 0x794, symBinAddr: 0x100002040, symSize: 0x20 }
  - { offsetInCU: 0xB406, offset: 0xB406, size: 0x8, addend: 0x0, symName: __ZNSt3__16__treeINS_12__value_typeINS_12basic_stringIcNS_11char_traitsIcEENS_9allocatorIcEEEENS_8functionIFvvEEEEENS_19__map_value_compareIS7_SB_NS_4lessIS7_EELb1EEENS5_ISB_EEE3endB7v160006Ev, symObjAddr: 0x7B4, symBinAddr: 0x100002060, symSize: 0x34 }
  - { offsetInCU: 0xB42C, offset: 0xB42C, size: 0x8, addend: 0x0, symName: __ZNSt3__16__treeINS_12__value_typeINS_12basic_stringIcNS_11char_traitsIcEENS_9allocatorIcEEEENS_8functionIFvvEEEEENS_19__map_value_compareIS7_SB_NS_4lessIS7_EELb1EEENS5_ISB_EEE10__end_nodeB7v160006Ev, symObjAddr: 0x7E8, symBinAddr: 0x100002094, symSize: 0x2C }
  - { offsetInCU: 0xB452, offset: 0xB452, size: 0x8, addend: 0x0, symName: __ZNSt3__114pointer_traitsIPNS_15__tree_end_nodeIPNS_16__tree_node_baseIPvEEEEE10pointer_toB7v160006ERS6_, symObjAddr: 0x814, symBinAddr: 0x1000020C0, symSize: 0x14 }
  - { offsetInCU: 0xB475, offset: 0xB475, size: 0x8, addend: 0x0, symName: __ZNSt3__117__compressed_pairINS_15__tree_end_nodeIPNS_16__tree_node_baseIPvEEEENS_9allocatorINS_11__tree_nodeINS_12__value_typeINS_12basic_stringIcNS_11char_traitsIcEENS7_IcEEEENS_8functionIFvvEEEEES3_EEEEE5firstB7v160006Ev, symObjAddr: 0x828, symBinAddr: 0x1000020D4, symSize: 0x24 }
  - { offsetInCU: 0xB49B, offset: 0xB49B, size: 0x8, addend: 0x0, symName: __ZNSt3__122__compressed_pair_elemINS_15__tree_end_nodeIPNS_16__tree_node_baseIPvEEEELi0ELb0EE5__getB7v160006Ev, symObjAddr: 0x84C, symBinAddr: 0x1000020F8, symSize: 0x14 }
  - { offsetInCU: 0xB4C1, offset: 0xB4C1, size: 0x8, addend: 0x0, symName: __ZNSt3__115__tree_iteratorINS_12__value_typeINS_12basic_stringIcNS_11char_traitsIcEENS_9allocatorIcEEEENS_8functionIFvvEEEEEPNS_11__tree_nodeISB_PvEElEppB7v160006Ev, symObjAddr: 0x8C4, symBinAddr: 0x100002170, symSize: 0x38 }
  - { offsetInCU: 0xB4E7, offset: 0xB4E7, size: 0x8, addend: 0x0, symName: __ZNKSt3__116__tree_node_baseIPvE15__parent_unsafeB7v160006Ev, symObjAddr: 0x9F8, symBinAddr: 0x1000022A4, symSize: 0x18 }
  - { offsetInCU: 0xB50D, offset: 0xB50D, size: 0x8, addend: 0x0, symName: __ZNKSt3__115__tree_iteratorINS_12__value_typeINS_12basic_stringIcNS_11char_traitsIcEENS_9allocatorIcEEEENS_8functionIFvvEEEEEPNS_11__tree_nodeISB_PvEElEptB7v160006Ev, symObjAddr: 0xA1C, symBinAddr: 0x1000022C8, symSize: 0x2C }
  - { offsetInCU: 0xB533, offset: 0xB533, size: 0x8, addend: 0x0, symName: __ZNSt3__112__value_typeINS_12basic_stringIcNS_11char_traitsIcEENS_9allocatorIcEEEENS_8functionIFvvEEEE11__get_valueB7v160006Ev, symObjAddr: 0xA48, symBinAddr: 0x1000022F4, symSize: 0x24 }
  - { offsetInCU: 0xB559, offset: 0xB559, size: 0x8, addend: 0x0, symName: __ZNSt3__114pointer_traitsIPNS_12__value_typeINS_12basic_stringIcNS_11char_traitsIcEENS_9allocatorIcEEEENS_8functionIFvvEEEEEE10pointer_toB7v160006ERSB_, symObjAddr: 0xA6C, symBinAddr: 0x100002318, symSize: 0x14 }
  - { offsetInCU: 0xB57C, offset: 0xB57C, size: 0x8, addend: 0x0, symName: __ZNKSt3__115__tree_iteratorINS_12__value_typeINS_12basic_stringIcNS_11char_traitsIcEENS_9allocatorIcEEEENS_8functionIFvvEEEEEPNS_11__tree_nodeISB_PvEElE8__get_npB7v160006Ev, symObjAddr: 0xA80, symBinAddr: 0x10000232C, symSize: 0x18 }
  - { offsetInCU: 0xB5A2, offset: 0xB5A2, size: 0x8, addend: 0x0, symName: __ZNSt3__111char_traitsIcE6lengthEPKc, symObjAddr: 0xCBC, symBinAddr: 0x100002568, symSize: 0x34 }
  - { offsetInCU: 0xB5E3, offset: 0xB5E3, size: 0x8, addend: 0x0, symName: __ZNKSt3__113basic_ostreamIcNS_11char_traitsIcEEE6sentrycvbB7v160006Ev, symObjAddr: 0xCF0, symBinAddr: 0x10000259C, symSize: 0x1C }
  - { offsetInCU: 0xB609, offset: 0xB609, size: 0x8, addend: 0x0, symName: __ZNSt3__119ostreambuf_iteratorIcNS_11char_traitsIcEEEC1B7v160006ERNS_13basic_ostreamIcS2_EE, symObjAddr: 0xF4C, symBinAddr: 0x1000027F8, symSize: 0x34 }
  - { offsetInCU: 0xB641, offset: 0xB641, size: 0x8, addend: 0x0, symName: __ZNKSt3__18ios_base5flagsB7v160006Ev, symObjAddr: 0xF80, symBinAddr: 0x10000282C, symSize: 0x18 }
  - { offsetInCU: 0xB669, offset: 0xB669, size: 0x8, addend: 0x0, symName: __ZNKSt3__19basic_iosIcNS_11char_traitsIcEEE4fillB7v160006Ev, symObjAddr: 0xF98, symBinAddr: 0x100002844, symSize: 0x64 }
  - { offsetInCU: 0xB691, offset: 0xB691, size: 0x8, addend: 0x0, symName: __ZNKSt3__119ostreambuf_iteratorIcNS_11char_traitsIcEEE6failedB7v160006Ev, symObjAddr: 0xFFC, symBinAddr: 0x1000028A8, symSize: 0x24 }
  - { offsetInCU: 0xB6B7, offset: 0xB6B7, size: 0x8, addend: 0x0, symName: __ZNSt3__19basic_iosIcNS_11char_traitsIcEEE8setstateB7v160006Ej, symObjAddr: 0x1020, symBinAddr: 0x1000028CC, symSize: 0x2C }
  - { offsetInCU: 0xB6EC, offset: 0xB6EC, size: 0x8, addend: 0x0, symName: __ZNKSt3__18ios_base5widthB7v160006Ev, symObjAddr: 0x104C, symBinAddr: 0x1000028F8, symSize: 0x18 }
  - { offsetInCU: 0xB714, offset: 0xB714, size: 0x8, addend: 0x0, symName: __ZNSt3__115basic_streambufIcNS_11char_traitsIcEEE5sputnB7v160006EPKcl, symObjAddr: 0x1064, symBinAddr: 0x100002910, symSize: 0x3C }
  - { offsetInCU: 0xB756, offset: 0xB756, size: 0x8, addend: 0x0, symName: __ZNSt3__112basic_stringIcNS_11char_traitsIcEENS_9allocatorIcEEEC1B7v160006Emc, symObjAddr: 0x10A0, symBinAddr: 0x10000294C, symSize: 0x3C }
  - { offsetInCU: 0xB79E, offset: 0xB79E, size: 0x8, addend: 0x0, symName: __ZNSt3__112basic_stringIcNS_11char_traitsIcEENS_9allocatorIcEEE4dataB7v160006Ev, symObjAddr: 0x10DC, symBinAddr: 0x100002988, symSize: 0x28 }
  - { offsetInCU: 0xB7C4, offset: 0xB7C4, size: 0x8, addend: 0x0, symName: __ZNSt3__18ios_base5widthB7v160006El, symObjAddr: 0x1104, symBinAddr: 0x1000029B0, symSize: 0x2C }
  - { offsetInCU: 0xB80A, offset: 0xB80A, size: 0x8, addend: 0x0, symName: __ZNSt3__112basic_stringIcNS_11char_traitsIcEENS_9allocatorIcEEEC2B7v160006Emc, symObjAddr: 0x1130, symBinAddr: 0x1000029DC, symSize: 0x54 }
  - { offsetInCU: 0xB857, offset: 0xB857, size: 0x8, addend: 0x0, symName: __ZNSt3__117__compressed_pairINS_12basic_stringIcNS_11char_traitsIcEENS_9allocatorIcEEE5__repES5_EC1B7v160006INS_18__default_init_tagESA_EEOT_OT0_, symObjAddr: 0x1184, symBinAddr: 0x100002A30, symSize: 0x3C }
  - { offsetInCU: 0xB8AF, offset: 0xB8AF, size: 0x8, addend: 0x0, symName: __ZNSt3__117__compressed_pairINS_12basic_stringIcNS_11char_traitsIcEENS_9allocatorIcEEE5__repES5_EC2B7v160006INS_18__default_init_tagESA_EEOT_OT0_, symObjAddr: 0x11D0, symBinAddr: 0x100002A7C, symSize: 0x3C }
  - { offsetInCU: 0xB907, offset: 0xB907, size: 0x8, addend: 0x0, symName: __ZNSt3__122__compressed_pair_elemINS_12basic_stringIcNS_11char_traitsIcEENS_9allocatorIcEEE5__repELi0ELb0EEC2B7v160006ENS_18__default_init_tagE, symObjAddr: 0x120C, symBinAddr: 0x100002AB8, symSize: 0x14 }
  - { offsetInCU: 0xB93C, offset: 0xB93C, size: 0x8, addend: 0x0, symName: __ZNSt3__122__compressed_pair_elemINS_9allocatorIcEELi1ELb1EEC2B7v160006ENS_18__default_init_tagE, symObjAddr: 0x1220, symBinAddr: 0x100002ACC, symSize: 0x2C }
  - { offsetInCU: 0xB971, offset: 0xB971, size: 0x8, addend: 0x0, symName: __ZNSt3__19allocatorIcEC2B7v160006Ev, symObjAddr: 0x124C, symBinAddr: 0x100002AF8, symSize: 0x2C }
  - { offsetInCU: 0xB99B, offset: 0xB99B, size: 0x8, addend: 0x0, symName: __ZNSt3__116__non_trivial_ifILb1ENS_9allocatorIcEEEC2B7v160006Ev, symObjAddr: 0x1278, symBinAddr: 0x100002B24, symSize: 0x14 }
  - { offsetInCU: 0xB9C5, offset: 0xB9C5, size: 0x8, addend: 0x0, symName: __ZNSt3__112basic_stringIcNS_11char_traitsIcEENS_9allocatorIcEEE13__get_pointerB7v160006Ev, symObjAddr: 0x12A0, symBinAddr: 0x100002B4C, symSize: 0x54 }
  - { offsetInCU: 0xB9EB, offset: 0xB9EB, size: 0x8, addend: 0x0, symName: __ZNKSt3__112basic_stringIcNS_11char_traitsIcEENS_9allocatorIcEEE9__is_longB7v160006Ev, symObjAddr: 0x12F4, symBinAddr: 0x100002BA0, symSize: 0x38 }
  - { offsetInCU: 0xBA11, offset: 0xBA11, size: 0x8, addend: 0x0, symName: __ZNSt3__112basic_stringIcNS_11char_traitsIcEENS_9allocatorIcEEE18__get_long_pointerB7v160006Ev, symObjAddr: 0x132C, symBinAddr: 0x100002BD8, symSize: 0x28 }
  - { offsetInCU: 0xBA37, offset: 0xBA37, size: 0x8, addend: 0x0, symName: __ZNSt3__112basic_stringIcNS_11char_traitsIcEENS_9allocatorIcEEE19__get_short_pointerB7v160006Ev, symObjAddr: 0x1354, symBinAddr: 0x100002C00, symSize: 0x28 }
  - { offsetInCU: 0xBA5D, offset: 0xBA5D, size: 0x8, addend: 0x0, symName: __ZNKSt3__117__compressed_pairINS_12basic_stringIcNS_11char_traitsIcEENS_9allocatorIcEEE5__repES5_E5firstB7v160006Ev, symObjAddr: 0x137C, symBinAddr: 0x100002C28, symSize: 0x24 }
  - { offsetInCU: 0xBA83, offset: 0xBA83, size: 0x8, addend: 0x0, symName: __ZNKSt3__122__compressed_pair_elemINS_12basic_stringIcNS_11char_traitsIcEENS_9allocatorIcEEE5__repELi0ELb0EE5__getB7v160006Ev, symObjAddr: 0x13A0, symBinAddr: 0x100002C4C, symSize: 0x14 }
  - { offsetInCU: 0xBAA9, offset: 0xBAA9, size: 0x8, addend: 0x0, symName: __ZNSt3__117__compressed_pairINS_12basic_stringIcNS_11char_traitsIcEENS_9allocatorIcEEE5__repES5_E5firstB7v160006Ev, symObjAddr: 0x13B4, symBinAddr: 0x100002C60, symSize: 0x24 }
  - { offsetInCU: 0xBACF, offset: 0xBACF, size: 0x8, addend: 0x0, symName: __ZNSt3__122__compressed_pair_elemINS_12basic_stringIcNS_11char_traitsIcEENS_9allocatorIcEEE5__repELi0ELb0EE5__getB7v160006Ev, symObjAddr: 0x13D8, symBinAddr: 0x100002C84, symSize: 0x14 }
  - { offsetInCU: 0xBAF5, offset: 0xBAF5, size: 0x8, addend: 0x0, symName: __ZNSt3__114pointer_traitsIPcE10pointer_toB7v160006ERc, symObjAddr: 0x13EC, symBinAddr: 0x100002C98, symSize: 0x14 }
  - { offsetInCU: 0xBB18, offset: 0xBB18, size: 0x8, addend: 0x0, symName: __ZNSt3__119ostreambuf_iteratorIcNS_11char_traitsIcEEEC2B7v160006ERNS_13basic_ostreamIcS2_EE, symObjAddr: 0x1400, symBinAddr: 0x100002CAC, symSize: 0x54 }
  - { offsetInCU: 0xBB50, offset: 0xBB50, size: 0x8, addend: 0x0, symName: __ZNKSt3__19basic_iosIcNS_11char_traitsIcEEE5rdbufB7v160006Ev, symObjAddr: 0x1454, symBinAddr: 0x100002D00, symSize: 0x24 }
  - { offsetInCU: 0xBB78, offset: 0xBB78, size: 0x8, addend: 0x0, symName: __ZNKSt3__18ios_base5rdbufB7v160006Ev, symObjAddr: 0x1478, symBinAddr: 0x100002D24, symSize: 0x18 }
  - { offsetInCU: 0xBB9E, offset: 0xBB9E, size: 0x8, addend: 0x0, symName: __ZNSt3__111char_traitsIcE11eq_int_typeEii, symObjAddr: 0x1490, symBinAddr: 0x100002D3C, symSize: 0x28 }
  - { offsetInCU: 0xBBCF, offset: 0xBBCF, size: 0x8, addend: 0x0, symName: __ZNSt3__111char_traitsIcE3eofEv, symObjAddr: 0x14B8, symBinAddr: 0x100002D64, symSize: 0x8 }
  - { offsetInCU: 0xBBE3, offset: 0xBBE3, size: 0x8, addend: 0x0, symName: __ZNKSt3__19basic_iosIcNS_11char_traitsIcEEE5widenB7v160006Ec, symObjAddr: 0x14C0, symBinAddr: 0x100002D6C, symSize: 0x84 }
  - { offsetInCU: 0xBC51, offset: 0xBC51, size: 0x8, addend: 0x0, symName: __ZNKSt3__15ctypeIcE5widenB7v160006Ec, symObjAddr: 0x1570, symBinAddr: 0x100002E1C, symSize: 0x38 }
  - { offsetInCU: 0xBC86, offset: 0xBC86, size: 0x8, addend: 0x0, symName: __ZNSt3__18ios_base8setstateB7v160006Ej, symObjAddr: 0x15A8, symBinAddr: 0x100002E54, symSize: 0x34 }
  - { offsetInCU: 0xBCBD, offset: 0xBCBD, size: 0x8, addend: 0x0, symName: __ZNKSt3__112basic_stringIcNS_11char_traitsIcEENS_9allocatorIcEEE4dataB7v160006Ev, symObjAddr: 0x1600, symBinAddr: 0x100002EAC, symSize: 0x28 }
  - { offsetInCU: 0xBCE3, offset: 0xBCE3, size: 0x8, addend: 0x0, symName: __ZNKSt3__112basic_stringIcNS_11char_traitsIcEENS_9allocatorIcEEE4sizeB7v160006Ev, symObjAddr: 0x1628, symBinAddr: 0x100002ED4, symSize: 0x54 }
  - { offsetInCU: 0xBD09, offset: 0xBD09, size: 0x8, addend: 0x0, symName: __ZNKSt3__112basic_stringIcNS_11char_traitsIcEENS_9allocatorIcEEE13__get_pointerB7v160006Ev, symObjAddr: 0x1690, symBinAddr: 0x100002F3C, symSize: 0x54 }
  - { offsetInCU: 0xBD2F, offset: 0xBD2F, size: 0x8, addend: 0x0, symName: __ZNKSt3__112basic_stringIcNS_11char_traitsIcEENS_9allocatorIcEEE18__get_long_pointerB7v160006Ev, symObjAddr: 0x16E4, symBinAddr: 0x100002F90, symSize: 0x28 }
  - { offsetInCU: 0xBD55, offset: 0xBD55, size: 0x8, addend: 0x0, symName: __ZNKSt3__112basic_stringIcNS_11char_traitsIcEENS_9allocatorIcEEE19__get_short_pointerB7v160006Ev, symObjAddr: 0x170C, symBinAddr: 0x100002FB8, symSize: 0x28 }
  - { offsetInCU: 0xBD7B, offset: 0xBD7B, size: 0x8, addend: 0x0, symName: __ZNSt3__114pointer_traitsIPKcE10pointer_toB7v160006ERS1_, symObjAddr: 0x1734, symBinAddr: 0x100002FE0, symSize: 0x14 }
  - { offsetInCU: 0xBD9E, offset: 0xBD9E, size: 0x8, addend: 0x0, symName: __ZNKSt3__112basic_stringIcNS_11char_traitsIcEENS_9allocatorIcEEE15__get_long_sizeB7v160006Ev, symObjAddr: 0x1748, symBinAddr: 0x100002FF4, symSize: 0x28 }
  - { offsetInCU: 0xBDC4, offset: 0xBDC4, size: 0x8, addend: 0x0, symName: __ZNKSt3__112basic_stringIcNS_11char_traitsIcEENS_9allocatorIcEEE16__get_short_sizeB7v160006Ev, symObjAddr: 0x1770, symBinAddr: 0x10000301C, symSize: 0x34 }
  - { offsetInCU: 0xBDEA, offset: 0xBDEA, size: 0x8, addend: 0x0, symName: __ZNKSt3__110__function12__value_funcIFvvEEclB7v160006Ev, symObjAddr: 0x17A4, symBinAddr: 0x100003050, symSize: 0x50 }
  - { offsetInCU: 0xBE15, offset: 0xBE15, size: 0x8, addend: 0x0, symName: __ZNSt3__117bad_function_callC1Ev, symObjAddr: 0x182C, symBinAddr: 0x1000030D8, symSize: 0x2C }
  - { offsetInCU: 0xBE41, offset: 0xBE41, size: 0x8, addend: 0x0, symName: __ZNSt3__117bad_function_callD1Ev, symObjAddr: 0x1858, symBinAddr: 0x100003104, symSize: 0x2C }
  - { offsetInCU: 0xBE6B, offset: 0xBE6B, size: 0x8, addend: 0x0, symName: __ZNSt3__117bad_function_callC2Ev, symObjAddr: 0x1884, symBinAddr: 0x100003130, symSize: 0x44 }
  - { offsetInCU: 0xBE97, offset: 0xBE97, size: 0x8, addend: 0x0, symName: __ZNSt3__117bad_function_callD0Ev, symObjAddr: 0x18C8, symBinAddr: 0x100003174, symSize: 0x30 }
  - { offsetInCU: 0xBEC1, offset: 0xBEC1, size: 0x8, addend: 0x0, symName: __ZNSt3__117bad_function_callD2Ev, symObjAddr: 0x18F8, symBinAddr: 0x1000031A4, symSize: 0x2C }
  - { offsetInCU: 0xBEEB, offset: 0xBEEB, size: 0x8, addend: 0x0, symName: __ZNKSt3__16__treeINS_12__value_typeINS_12basic_stringIcNS_11char_traitsIcEENS_9allocatorIcEEEENS_8functionIFvvEEEEENS_19__map_value_compareIS7_SB_NS_4lessIS7_EELb1EEENS5_ISB_EEE4sizeB7v160006Ev, symObjAddr: 0x1924, symBinAddr: 0x1000031D0, symSize: 0x28 }
  - { offsetInCU: 0xBF11, offset: 0xBF11, size: 0x8, addend: 0x0, symName: __ZNKSt3__117__compressed_pairImNS_19__map_value_compareINS_12basic_stringIcNS_11char_traitsIcEENS_9allocatorIcEEEENS_12__value_typeIS7_NS_8functionIFvvEEEEENS_4lessIS7_EELb1EEEE5firstB7v160006Ev, symObjAddr: 0x194C, symBinAddr: 0x1000031F8, symSize: 0x24 }
  - { offsetInCU: 0xBF37, offset: 0xBF37, size: 0x8, addend: 0x0, symName: __ZNKSt3__122__compressed_pair_elemImLi0ELb0EE5__getB7v160006Ev, symObjAddr: 0x1970, symBinAddr: 0x10000321C, symSize: 0x14 }
  - { offsetInCU: 0xBF5D, offset: 0xBF5D, size: 0x8, addend: 0x0, symName: __ZNSt3__13mapINS_12basic_stringIcNS_11char_traitsIcEENS_9allocatorIcEEEENS_8functionIFvvEEENS_4lessIS6_EENS4_INS_4pairIKS6_S9_EEEEEC2B7v160006Ev, symObjAddr: 0x1984, symBinAddr: 0x100003230, symSize: 0x40 }
  - { offsetInCU: 0xBF87, offset: 0xBF87, size: 0x8, addend: 0x0, symName: __ZNSt3__119__map_value_compareINS_12basic_stringIcNS_11char_traitsIcEENS_9allocatorIcEEEENS_12__value_typeIS6_NS_8functionIFvvEEEEENS_4lessIS6_EELb1EEC1B7v160006ESD_, symObjAddr: 0x19C4, symBinAddr: 0x100003270, symSize: 0x2C }
  - { offsetInCU: 0xBFC0, offset: 0xBFC0, size: 0x8, addend: 0x0, symName: __ZNSt3__16__treeINS_12__value_typeINS_12basic_stringIcNS_11char_traitsIcEENS_9allocatorIcEEEENS_8functionIFvvEEEEENS_19__map_value_compareIS7_SB_NS_4lessIS7_EELb1EEENS5_ISB_EEEC1ERKSF_, symObjAddr: 0x19F0, symBinAddr: 0x10000329C, symSize: 0x34 }
  - { offsetInCU: 0xBFFB, offset: 0xBFFB, size: 0x8, addend: 0x0, symName: __ZNSt3__119__map_value_compareINS_12basic_stringIcNS_11char_traitsIcEENS_9allocatorIcEEEENS_12__value_typeIS6_NS_8functionIFvvEEEEENS_4lessIS6_EELb1EEC2B7v160006ESD_, symObjAddr: 0x1A24, symBinAddr: 0x1000032D0, symSize: 0x14 }
  - { offsetInCU: 0xC034, offset: 0xC034, size: 0x8, addend: 0x0, symName: __ZNSt3__16__treeINS_12__value_typeINS_12basic_stringIcNS_11char_traitsIcEENS_9allocatorIcEEEENS_8functionIFvvEEEEENS_19__map_value_compareIS7_SB_NS_4lessIS7_EELb1EEENS5_ISB_EEEC2ERKSF_, symObjAddr: 0x1A38, symBinAddr: 0x1000032E4, symSize: 0x7C }
  - { offsetInCU: 0xC06F, offset: 0xC06F, size: 0x8, addend: 0x0, symName: __ZNSt3__117__compressed_pairINS_15__tree_end_nodeIPNS_16__tree_node_baseIPvEEEENS_9allocatorINS_11__tree_nodeINS_12__value_typeINS_12basic_stringIcNS_11char_traitsIcEENS7_IcEEEENS_8functionIFvvEEEEES3_EEEEEC1B7v160006ILb1EvEEv, symObjAddr: 0x1AB4, symBinAddr: 0x100003360, symSize: 0x2C }
  - { offsetInCU: 0xC0A9, offset: 0xC0A9, size: 0x8, addend: 0x0, symName: __ZNSt3__117__compressed_pairImNS_19__map_value_compareINS_12basic_stringIcNS_11char_traitsIcEENS_9allocatorIcEEEENS_12__value_typeIS7_NS_8functionIFvvEEEEENS_4lessIS7_EELb1EEEEC1B7v160006IiRKSF_EEOT_OT0_, symObjAddr: 0x1AE0, symBinAddr: 0x10000338C, symSize: 0x3C }
  - { offsetInCU: 0xC101, offset: 0xC101, size: 0x8, addend: 0x0, symName: __ZNSt3__117__compressed_pairINS_15__tree_end_nodeIPNS_16__tree_node_baseIPvEEEENS_9allocatorINS_11__tree_nodeINS_12__value_typeINS_12basic_stringIcNS_11char_traitsIcEENS7_IcEEEENS_8functionIFvvEEEEES3_EEEEEC2B7v160006ILb1EvEEv, symObjAddr: 0x1B1C, symBinAddr: 0x1000033C8, symSize: 0x34 }
  - { offsetInCU: 0xC136, offset: 0xC136, size: 0x8, addend: 0x0, symName: __ZNSt3__122__compressed_pair_elemINS_15__tree_end_nodeIPNS_16__tree_node_baseIPvEEEELi0ELb0EEC2B7v160006ENS_16__value_init_tagE, symObjAddr: 0x1B50, symBinAddr: 0x1000033FC, symSize: 0x2C }
  - { offsetInCU: 0xC16B, offset: 0xC16B, size: 0x8, addend: 0x0, symName: __ZNSt3__122__compressed_pair_elemINS_9allocatorINS_11__tree_nodeINS_12__value_typeINS_12basic_stringIcNS_11char_traitsIcEENS1_IcEEEENS_8functionIFvvEEEEEPvEEEELi1ELb1EEC2B7v160006ENS_16__value_init_tagE, symObjAddr: 0x1B7C, symBinAddr: 0x100003428, symSize: 0x2C }
  - { offsetInCU: 0xC1A0, offset: 0xC1A0, size: 0x8, addend: 0x0, symName: __ZNSt3__115__tree_end_nodeIPNS_16__tree_node_baseIPvEEEC1B7v160006Ev, symObjAddr: 0x1BA8, symBinAddr: 0x100003454, symSize: 0x2C }
  - { offsetInCU: 0xC1CA, offset: 0xC1CA, size: 0x8, addend: 0x0, symName: __ZNSt3__115__tree_end_nodeIPNS_16__tree_node_baseIPvEEEC2B7v160006Ev, symObjAddr: 0x1BD4, symBinAddr: 0x100003480, symSize: 0x18 }
  - { offsetInCU: 0xC1F4, offset: 0xC1F4, size: 0x8, addend: 0x0, symName: __ZNSt3__19allocatorINS_11__tree_nodeINS_12__value_typeINS_12basic_stringIcNS_11char_traitsIcEENS0_IcEEEENS_8functionIFvvEEEEEPvEEEC2B7v160006Ev, symObjAddr: 0x1BEC, symBinAddr: 0x100003498, symSize: 0x2C }
  - { offsetInCU: 0xC21E, offset: 0xC21E, size: 0x8, addend: 0x0, symName: __ZNSt3__116__non_trivial_ifILb1ENS_9allocatorINS_11__tree_nodeINS_12__value_typeINS_12basic_stringIcNS_11char_traitsIcEENS1_IcEEEENS_8functionIFvvEEEEEPvEEEEEC2B7v160006Ev, symObjAddr: 0x1C18, symBinAddr: 0x1000034C4, symSize: 0x14 }
  - { offsetInCU: 0xC248, offset: 0xC248, size: 0x8, addend: 0x0, symName: __ZNSt3__117__compressed_pairImNS_19__map_value_compareINS_12basic_stringIcNS_11char_traitsIcEENS_9allocatorIcEEEENS_12__value_typeIS7_NS_8functionIFvvEEEEENS_4lessIS7_EELb1EEEEC2B7v160006IiRKSF_EEOT_OT0_, symObjAddr: 0x1C2C, symBinAddr: 0x1000034D8, symSize: 0x44 }
  - { offsetInCU: 0xC2A0, offset: 0xC2A0, size: 0x8, addend: 0x0, symName: __ZNSt3__122__compressed_pair_elemImLi0ELb0EEC2B7v160006IivEEOT_, symObjAddr: 0x1C70, symBinAddr: 0x10000351C, symSize: 0x24 }
  - { offsetInCU: 0xC2E2, offset: 0xC2E2, size: 0x8, addend: 0x0, symName: __ZNSt3__122__compressed_pair_elemINS_19__map_value_compareINS_12basic_stringIcNS_11char_traitsIcEENS_9allocatorIcEEEENS_12__value_typeIS7_NS_8functionIFvvEEEEENS_4lessIS7_EELb1EEELi1ELb1EEC2B7v160006IRKSF_vEEOT_, symObjAddr: 0x1C94, symBinAddr: 0x100003540, symSize: 0x18 }
  - { offsetInCU: 0xC324, offset: 0xC324, size: 0x8, addend: 0x0, symName: __ZNSt3__13mapINS_12basic_stringIcNS_11char_traitsIcEENS_9allocatorIcEEEENS_8functionIFvvEEENS_4lessIS6_EENS4_INS_4pairIKS6_S9_EEEEED2B7v160006Ev, symObjAddr: 0x1CAC, symBinAddr: 0x100003558, symSize: 0x2C }
  - { offsetInCU: 0xC34E, offset: 0xC34E, size: 0x8, addend: 0x0, symName: __ZNSt3__16__treeINS_12__value_typeINS_12basic_stringIcNS_11char_traitsIcEENS_9allocatorIcEEEENS_8functionIFvvEEEEENS_19__map_value_compareIS7_SB_NS_4lessIS7_EELb1EEENS5_ISB_EEED1Ev, symObjAddr: 0x1CD8, symBinAddr: 0x100003584, symSize: 0x2C }
  - { offsetInCU: 0xC37A, offset: 0xC37A, size: 0x8, addend: 0x0, symName: __ZNSt3__16__treeINS_12__value_typeINS_12basic_stringIcNS_11char_traitsIcEENS_9allocatorIcEEEENS_8functionIFvvEEEEENS_19__map_value_compareIS7_SB_NS_4lessIS7_EELb1EEENS5_ISB_EEED2Ev, symObjAddr: 0x1D04, symBinAddr: 0x1000035B0, symSize: 0x38 }
  - { offsetInCU: 0xC3A6, offset: 0xC3A6, size: 0x8, addend: 0x0, symName: __ZNSt3__16__treeINS_12__value_typeINS_12basic_stringIcNS_11char_traitsIcEENS_9allocatorIcEEEENS_8functionIFvvEEEEENS_19__map_value_compareIS7_SB_NS_4lessIS7_EELb1EEENS5_ISB_EEE7destroyEPNS_11__tree_nodeISB_PvEE, symObjAddr: 0x1D3C, symBinAddr: 0x1000035E8, symSize: 0xAC }
  - { offsetInCU: 0xC3F2, offset: 0xC3F2, size: 0x8, addend: 0x0, symName: __ZNKSt3__16__treeINS_12__value_typeINS_12basic_stringIcNS_11char_traitsIcEENS_9allocatorIcEEEENS_8functionIFvvEEEEENS_19__map_value_compareIS7_SB_NS_4lessIS7_EELb1EEENS5_ISB_EEE6__rootB7v160006Ev, symObjAddr: 0x1DE8, symBinAddr: 0x100003694, symSize: 0x28 }
  - { offsetInCU: 0xC418, offset: 0xC418, size: 0x8, addend: 0x0, symName: __ZNSt3__16__treeINS_12__value_typeINS_12basic_stringIcNS_11char_traitsIcEENS_9allocatorIcEEEENS_8functionIFvvEEEEENS_19__map_value_compareIS7_SB_NS_4lessIS7_EELb1EEENS5_ISB_EEE12__node_allocB7v160006Ev, symObjAddr: 0x1E10, symBinAddr: 0x1000036BC, symSize: 0x28 }
  - { offsetInCU: 0xC443, offset: 0xC443, size: 0x8, addend: 0x0, symName: __ZNSt3__116allocator_traitsINS_9allocatorINS_11__tree_nodeINS_12__value_typeINS_12basic_stringIcNS_11char_traitsIcEENS1_IcEEEENS_8functionIFvvEEEEEPvEEEEE7destroyB7v160006INS_4pairIKS8_SB_EEvvEEvRSF_PT_, symObjAddr: 0x1E38, symBinAddr: 0x1000036E4, symSize: 0x28 }
  - { offsetInCU: 0xC47E, offset: 0xC47E, size: 0x8, addend: 0x0, symName: __ZNSt3__122__tree_key_value_typesINS_12__value_typeINS_12basic_stringIcNS_11char_traitsIcEENS_9allocatorIcEEEENS_8functionIFvvEEEEEE9__get_ptrB7v160006ERSB_, symObjAddr: 0x1E60, symBinAddr: 0x10000370C, symSize: 0x24 }
  - { offsetInCU: 0xC4A2, offset: 0xC4A2, size: 0x8, addend: 0x0, symName: __ZNSt3__116allocator_traitsINS_9allocatorINS_11__tree_nodeINS_12__value_typeINS_12basic_stringIcNS_11char_traitsIcEENS1_IcEEEENS_8functionIFvvEEEEEPvEEEEE10deallocateB7v160006ERSF_PSE_m, symObjAddr: 0x1E84, symBinAddr: 0x100003730, symSize: 0x34 }
  - { offsetInCU: 0xC4E4, offset: 0xC4E4, size: 0x8, addend: 0x0, symName: __ZNSt3__117__compressed_pairINS_15__tree_end_nodeIPNS_16__tree_node_baseIPvEEEENS_9allocatorINS_11__tree_nodeINS_12__value_typeINS_12basic_stringIcNS_11char_traitsIcEENS7_IcEEEENS_8functionIFvvEEEEES3_EEEEE6secondB7v160006Ev, symObjAddr: 0x1EB8, symBinAddr: 0x100003764, symSize: 0x24 }
  - { offsetInCU: 0xC50A, offset: 0xC50A, size: 0x8, addend: 0x0, symName: __ZNSt3__122__compressed_pair_elemINS_9allocatorINS_11__tree_nodeINS_12__value_typeINS_12basic_stringIcNS_11char_traitsIcEENS1_IcEEEENS_8functionIFvvEEEEEPvEEEELi1ELb1EE5__getB7v160006Ev, symObjAddr: 0x1EDC, symBinAddr: 0x100003788, symSize: 0x14 }
  - { offsetInCU: 0xC530, offset: 0xC530, size: 0x8, addend: 0x0, symName: __ZNSt3__14pairIKNS_12basic_stringIcNS_11char_traitsIcEENS_9allocatorIcEEEENS_8functionIFvvEEEED1Ev, symObjAddr: 0x1EF0, symBinAddr: 0x10000379C, symSize: 0x2C }
  - { offsetInCU: 0xC55C, offset: 0xC55C, size: 0x8, addend: 0x0, symName: __ZNSt3__14pairIKNS_12basic_stringIcNS_11char_traitsIcEENS_9allocatorIcEEEENS_8functionIFvvEEEED2Ev, symObjAddr: 0x1F1C, symBinAddr: 0x1000037C8, symSize: 0x38 }
  - { offsetInCU: 0xC588, offset: 0xC588, size: 0x8, addend: 0x0, symName: __ZNSt3__18functionIFvvEED1Ev, symObjAddr: 0x1F54, symBinAddr: 0x100003800, symSize: 0x2C }
  - { offsetInCU: 0xC5B4, offset: 0xC5B4, size: 0x8, addend: 0x0, symName: __ZNSt3__18functionIFvvEED2Ev, symObjAddr: 0x1F80, symBinAddr: 0x10000382C, symSize: 0x2C }
  - { offsetInCU: 0xC5E0, offset: 0xC5E0, size: 0x8, addend: 0x0, symName: __ZNSt3__110__function12__value_funcIFvvEED1B7v160006Ev, symObjAddr: 0x1FAC, symBinAddr: 0x100003858, symSize: 0x2C }
  - { offsetInCU: 0xC60A, offset: 0xC60A, size: 0x8, addend: 0x0, symName: __ZNSt3__110__function12__value_funcIFvvEED2B7v160006Ev, symObjAddr: 0x1FD8, symBinAddr: 0x100003884, symSize: 0x90 }
  - { offsetInCU: 0xC634, offset: 0xC634, size: 0x8, addend: 0x0, symName: __ZNSt3__19allocatorINS_11__tree_nodeINS_12__value_typeINS_12basic_stringIcNS_11char_traitsIcEENS0_IcEEEENS_8functionIFvvEEEEEPvEEE10deallocateB7v160006EPSD_m, symObjAddr: 0x2068, symBinAddr: 0x100003914, symSize: 0x44 }
  - { offsetInCU: 0xC676, offset: 0xC676, size: 0x8, addend: 0x0, symName: __ZNKSt3__16__treeINS_12__value_typeINS_12basic_stringIcNS_11char_traitsIcEENS_9allocatorIcEEEENS_8functionIFvvEEEEENS_19__map_value_compareIS7_SB_NS_4lessIS7_EELb1EEENS5_ISB_EEE10__end_nodeB7v160006Ev, symObjAddr: 0x21D4, symBinAddr: 0x100003A80, symSize: 0x2C }
  - { offsetInCU: 0xC69C, offset: 0xC69C, size: 0x8, addend: 0x0, symName: __ZNKSt3__117__compressed_pairINS_15__tree_end_nodeIPNS_16__tree_node_baseIPvEEEENS_9allocatorINS_11__tree_nodeINS_12__value_typeINS_12basic_stringIcNS_11char_traitsIcEENS7_IcEEEENS_8functionIFvvEEEEES3_EEEEE5firstB7v160006Ev, symObjAddr: 0x2200, symBinAddr: 0x100003AAC, symSize: 0x24 }
  - { offsetInCU: 0xC6C2, offset: 0xC6C2, size: 0x8, addend: 0x0, symName: __ZNKSt3__122__compressed_pair_elemINS_15__tree_end_nodeIPNS_16__tree_node_baseIPvEEEELi0ELb0EE5__getB7v160006Ev, symObjAddr: 0x2224, symBinAddr: 0x100003AD0, symSize: 0x14 }
  - { offsetInCU: 0x26, offset: 0xC802, size: 0x8, addend: 0x0, symName: _main, symObjAddr: 0x0, symBinAddr: 0x100003B38, symSize: 0x24 }
  - { offsetInCU: 0x2A1B, offset: 0xF1F7, size: 0x8, addend: 0x0, symName: _main, symObjAddr: 0x0, symBinAddr: 0x100003B38, symSize: 0x24 }
  - { offsetInCU: 0x46, offset: 0xF257, size: 0x8, addend: 0x0, symName: __ZN12mytest_test312_GLOBAL__N_112_GLOBAL__N_131mytest_func_130_struct_instanceE, symObjAddr: 0x41118, symBinAddr: 0x10000C01D, symSize: 0x0 }
  - { offsetInCU: 0xA8, offset: 0xF2B9, size: 0x8, addend: 0x0, symName: __ZNSt3__17nulloptE, symObjAddr: 0x456F, symBinAddr: 0x100007B15, symSize: 0x0 }
  - { offsetInCU: 0xC2, offset: 0xF2D3, size: 0x8, addend: 0x0, symName: __ZNSt3__1L19piecewise_constructE, symObjAddr: 0x45CB, symBinAddr: 0x100007B71, symSize: 0x0 }
  - { offsetInCU: 0x2DAA, offset: 0x11FBB, size: 0x8, addend: 0x0, symName: __ZNSt3__110__function10__not_nullB7v160006IFvvEEEbPT_, symObjAddr: 0x2A9C, symBinAddr: 0x100005DF4, symSize: 0x20 }
  - { offsetInCU: 0x64A8, offset: 0x156B9, size: 0x8, addend: 0x0, symName: __ZNSt3__1ltB7v160006IcNS_11char_traitsIcEENS_9allocatorIcEEEEbRKNS_12basic_stringIT_T0_T1_EESB_, symObjAddr: 0xAA8, symBinAddr: 0x10000450C, symSize: 0x38 }
  - { offsetInCU: 0x6525, offset: 0x15736, size: 0x8, addend: 0x0, symName: __ZNSt3__13minB7v160006ImEERKT_S3_S3_, symObjAddr: 0xDC0, symBinAddr: 0x1000047A8, symSize: 0x2C }
  - { offsetInCU: 0x6568, offset: 0x15779, size: 0x8, addend: 0x0, symName: __ZNSt3__118__constexpr_memcmpB7v160006IcEEiPKT_S3_m, symObjAddr: 0xEC4, symBinAddr: 0x1000047D4, symSize: 0x34 }
  - { offsetInCU: 0x65B9, offset: 0x157CA, size: 0x8, addend: 0x0, symName: __ZNSt3__13minB7v160006ImNS_6__lessImmEEEERKT_S5_S5_T0_, symObjAddr: 0xFC4, symBinAddr: 0x100004808, symSize: 0x54 }
  - { offsetInCU: 0x664E, offset: 0x1585F, size: 0x8, addend: 0x0, symName: __ZNSt3__17launderB7v160006IKNS_4pairIKNS_12basic_stringIcNS_11char_traitsIcEENS_9allocatorIcEEEENS_8functionIFvvEEEEEEEPT_SF_, symObjAddr: 0x10D8, symBinAddr: 0x10000491C, symSize: 0x24 }
  - { offsetInCU: 0x6685, offset: 0x15896, size: 0x8, addend: 0x0, symName: __ZNSt3__19__launderB7v160006IKNS_4pairIKNS_12basic_stringIcNS_11char_traitsIcEENS_9allocatorIcEEEENS_8functionIFvvEEEEEEEPT_SF_, symObjAddr: 0x10FC, symBinAddr: 0x100004940, symSize: 0x14 }
  - { offsetInCU: 0x66DA, offset: 0x158EB, size: 0x8, addend: 0x0, symName: __ZNSt3__117__libcpp_allocateB7v160006Emm, symObjAddr: 0x13B0, symBinAddr: 0x100004B38, symSize: 0x60 }
  - { offsetInCU: 0x6734, offset: 0x15945, size: 0x8, addend: 0x0, symName: __ZNSt3__121__libcpp_operator_newB7v160006IJmSt11align_val_tEEEPvDpT_, symObjAddr: 0x1450, symBinAddr: 0x100004BB8, symSize: 0x2C }
  - { offsetInCU: 0x6781, offset: 0x15992, size: 0x8, addend: 0x0, symName: __ZNSt3__121__libcpp_operator_newB7v160006IJmEEEPvDpT_, symObjAddr: 0x147C, symBinAddr: 0x100004BE4, symSize: 0x24 }
  - { offsetInCU: 0x67BA, offset: 0x159CB, size: 0x8, addend: 0x0, symName: __ZNSt3__127__tree_balance_after_insertB7v160006IPNS_16__tree_node_baseIPvEEEEvT_S5_, symObjAddr: 0x18FC, symBinAddr: 0x100004FF4, symSize: 0x32C }
  - { offsetInCU: 0x6836, offset: 0x15A47, size: 0x8, addend: 0x0, symName: __ZNSt3__118__tree_left_rotateB7v160006IPNS_16__tree_node_baseIPvEEEEvT_, symObjAddr: 0x1C94, symBinAddr: 0x100005348, symSize: 0xD8 }
  - { offsetInCU: 0x6878, offset: 0x15A89, size: 0x8, addend: 0x0, symName: __ZNSt3__119__tree_right_rotateB7v160006IPNS_16__tree_node_baseIPvEEEEvT_, symObjAddr: 0x1D6C, symBinAddr: 0x100005420, symSize: 0xCC }
  - { offsetInCU: 0x6FB7, offset: 0x161C8, size: 0x8, addend: 0x0, symName: __ZNSt3__116forward_as_tupleB7v160006IJPFvvEEEENS_5tupleIJDpOT_EEES6_, symObjAddr: 0x301C, symBinAddr: 0x100006374, symSize: 0x2C }
  - { offsetInCU: 0x6FF0, offset: 0x16201, size: 0x8, addend: 0x0, symName: __ZNSt3__116forward_as_tupleB7v160006IJNS_9allocatorIPFvvEEEEEENS_5tupleIJDpOT_EEES8_, symObjAddr: 0x3048, symBinAddr: 0x1000063A0, symSize: 0x2C }
  - { offsetInCU: 0x706E, offset: 0x1627F, size: 0x8, addend: 0x0, symName: __ZNSt3__13getB7v160006ILm0EJOPFvvEEEERNS_13tuple_elementIXT_ENS_5tupleIJDpT0_EEEE4typeERS8_, symObjAddr: 0x3360, symBinAddr: 0x1000066B8, symSize: 0x24 }
  - { offsetInCU: 0x70B1, offset: 0x162C2, size: 0x8, addend: 0x0, symName: __ZNSt3__13getB7v160006ILm0EJONS_9allocatorIPFvvEEEEEERNS_13tuple_elementIXT_ENS_5tupleIJDpT0_EEEE4typeERSA_, symObjAddr: 0x339C, symBinAddr: 0x1000066F4, symSize: 0x24 }
  - { offsetInCU: 0x75D8, offset: 0x167E9, size: 0x8, addend: 0x0, symName: __ZNSt3__116forward_as_tupleB7v160006IJRKPFvvEEEENS_5tupleIJDpOT_EEES8_, symObjAddr: 0x3930, symBinAddr: 0x100006C88, symSize: 0x2C }
  - { offsetInCU: 0x7626, offset: 0x16837, size: 0x8, addend: 0x0, symName: __ZNSt3__13getB7v160006ILm0EJRKPFvvEEEERNS_13tuple_elementIXT_ENS_5tupleIJDpT0_EEEE4typeERS9_, symObjAddr: 0x3B20, symBinAddr: 0x100006E78, symSize: 0x24 }
  - { offsetInCU: 0x7669, offset: 0x1687A, size: 0x8, addend: 0x0, symName: __ZNSt3__116forward_as_tupleB7v160006IJRKNS_9allocatorIPFvvEEEEEENS_5tupleIJDpOT_EEESA_, symObjAddr: 0x3E7C, symBinAddr: 0x1000071D4, symSize: 0x2C }
  - { offsetInCU: 0x76B7, offset: 0x168C8, size: 0x8, addend: 0x0, symName: __ZNSt3__13getB7v160006ILm0EJRKNS_9allocatorIPFvvEEEEEERNS_13tuple_elementIXT_ENS_5tupleIJDpT0_EEEE4typeERSB_, symObjAddr: 0x4060, symBinAddr: 0x1000073B8, symSize: 0x24 }
  - { offsetInCU: 0x772D, offset: 0x1693E, size: 0x8, addend: 0x0, symName: __ZNSt3__18__invokeB7v160006IRPFvvEJEEEDTclclsr3stdE7declvalIT_EEspclsr3stdE7declvalIT0_EEEEOS4_DpOS5_, symObjAddr: 0x411C, symBinAddr: 0x100007474, symSize: 0x28 }
  - { offsetInCU: 0x7879, offset: 0x16A8A, size: 0x8, addend: 0x0, symName: __ZSt28__throw_bad_array_new_lengthB7v160006v, symObjAddr: 0x137C, symBinAddr: 0x100004B04, symSize: 0x34 }
  - { offsetInCU: 0x9CD4, offset: 0x18EE5, size: 0x8, addend: 0x0, symName: __ZN12mytest_test312_GLOBAL__N_112_GLOBAL__N_122mytest_func_130_structC1Ev, symObjAddr: 0x0, symBinAddr: 0x100003B5C, symSize: 0x2C }
  - { offsetInCU: 0x9CFE, offset: 0x18F0F, size: 0x8, addend: 0x0, symName: __ZN12mytest_test312_GLOBAL__N_112_GLOBAL__N_122mytest_func_130_structC2Ev, symObjAddr: 0x2C, symBinAddr: 0x100003B88, symSize: 0xD0 }
  - { offsetInCU: 0x9E82, offset: 0x19093, size: 0x8, addend: 0x0, symName: __ZNSt3__13mapINS_12basic_stringIcNS_11char_traitsIcEENS_9allocatorIcEEEENS_8functionIFvvEEENS_4lessIS6_EENS4_INS_4pairIKS6_S9_EEEEE6insertB7v160006EOSE_, symObjAddr: 0xFC, symBinAddr: 0x100003C58, symSize: 0x4C }
  - { offsetInCU: 0x9EB7, offset: 0x190C8, size: 0x8, addend: 0x0, symName: __ZN12mytest_test312_GLOBAL__N_112_GLOBAL__N_122mytest_func_130_struct15mytest_func_130Ev, symObjAddr: 0x148, symBinAddr: 0x100003CA4, symSize: 0xC8 }
  - { offsetInCU: 0x9EE6, offset: 0x190F7, size: 0x8, addend: 0x0, symName: __ZNSt3__14pairIKNS_12basic_stringIcNS_11char_traitsIcEENS_9allocatorIcEEEENS_8functionIFvvEEEEC1B7v160006IRA39_KcRS9_LPv0EEEOT_OT0_, symObjAddr: 0x210, symBinAddr: 0x100003D6C, symSize: 0x3C }
  - { offsetInCU: 0x9F45, offset: 0x19156, size: 0x8, addend: 0x0, symName: __ZNSt3__16__treeINS_12__value_typeINS_12basic_stringIcNS_11char_traitsIcEENS_9allocatorIcEEEENS_8functionIFvvEEEEENS_19__map_value_compareIS7_SB_NS_4lessIS7_EELb1EEENS5_ISB_EEE15__insert_uniqueB7v160006EONS_4pairIKS7_SA_EE, symObjAddr: 0x278, symBinAddr: 0x100003DA8, symSize: 0x50 }
  - { offsetInCU: 0x9F7A, offset: 0x1918B, size: 0x8, addend: 0x0, symName: __ZNSt3__14pairINS_14__map_iteratorINS_15__tree_iteratorINS_12__value_typeINS_12basic_stringIcNS_11char_traitsIcEENS_9allocatorIcEEEENS_8functionIFvvEEEEEPNS_11__tree_nodeISD_PvEElEEEEbEC1B7v160006ISI_bLSF_0EEEONS0_IT_T0_EE, symObjAddr: 0x2C8, symBinAddr: 0x100003DF8, symSize: 0x34 }
  - { offsetInCU: 0x9FCC, offset: 0x191DD, size: 0x8, addend: 0x0, symName: __ZNSt3__16__treeINS_12__value_typeINS_12basic_stringIcNS_11char_traitsIcEENS_9allocatorIcEEEENS_8functionIFvvEEEEENS_19__map_value_compareIS7_SB_NS_4lessIS7_EELb1EEENS5_ISB_EEE25__emplace_unique_key_argsIS7_JNS_4pairIKS7_SA_EEEEENSJ_INS_15__tree_iteratorISB_PNS_11__tree_nodeISB_PvEElEEbEERKT_DpOT0_, symObjAddr: 0x2FC, symBinAddr: 0x100003E2C, symSize: 0xF0 }
  - { offsetInCU: 0xA078, offset: 0x19289, size: 0x8, addend: 0x0, symName: __ZNSt3__122__tree_key_value_typesINS_12__value_typeINS_12basic_stringIcNS_11char_traitsIcEENS_9allocatorIcEEEENS_8functionIFvvEEEEEE9__get_keyB7v160006INS_4pairIKS7_SA_EEEENS_9enable_ifIXsr17__is_same_uncvrefIT_SG_EE5valueERSF_E4typeERSI_, symObjAddr: 0x3EC, symBinAddr: 0x100003F1C, symSize: 0x14 }
  - { offsetInCU: 0xA0A5, offset: 0x192B6, size: 0x8, addend: 0x0, symName: __ZNSt3__16__treeINS_12__value_typeINS_12basic_stringIcNS_11char_traitsIcEENS_9allocatorIcEEEENS_8functionIFvvEEEEENS_19__map_value_compareIS7_SB_NS_4lessIS7_EELb1EEENS5_ISB_EEE12__find_equalIS7_EERPNS_16__tree_node_baseIPvEERPNS_15__tree_end_nodeISM_EERKT_, symObjAddr: 0x400, symBinAddr: 0x100003F30, symSize: 0x184 }
  - { offsetInCU: 0xA112, offset: 0x19323, size: 0x8, addend: 0x0, symName: __ZNSt3__16__treeINS_12__value_typeINS_12basic_stringIcNS_11char_traitsIcEENS_9allocatorIcEEEENS_8functionIFvvEEEEENS_19__map_value_compareIS7_SB_NS_4lessIS7_EELb1EEENS5_ISB_EEE16__construct_nodeIJNS_4pairIKS7_SA_EEEEENS_10unique_ptrINS_11__tree_nodeISB_PvEENS_22__tree_node_destructorINS5_ISP_EEEEEEDpOT_, symObjAddr: 0x584, symBinAddr: 0x1000040B4, symSize: 0x110 }
  - { offsetInCU: 0xA173, offset: 0x19384, size: 0x8, addend: 0x0, symName: __ZNSt3__16__treeINS_12__value_typeINS_12basic_stringIcNS_11char_traitsIcEENS_9allocatorIcEEEENS_8functionIFvvEEEEENS_19__map_value_compareIS7_SB_NS_4lessIS7_EELb1EEENS5_ISB_EEE16__insert_node_atEPNS_15__tree_end_nodeIPNS_16__tree_node_baseIPvEEEERSM_SM_, symObjAddr: 0x694, symBinAddr: 0x1000041C4, symSize: 0xCC }
  - { offsetInCU: 0xA1C8, offset: 0x193D9, size: 0x8, addend: 0x0, symName: __ZNKSt3__110unique_ptrINS_11__tree_nodeINS_12__value_typeINS_12basic_stringIcNS_11char_traitsIcEENS_9allocatorIcEEEENS_8functionIFvvEEEEEPvEENS_22__tree_node_destructorINS6_ISE_EEEEE3getB7v160006Ev, symObjAddr: 0x760, symBinAddr: 0x100004290, symSize: 0x28 }
  - { offsetInCU: 0xA1EE, offset: 0x193FF, size: 0x8, addend: 0x0, symName: __ZNSt3__110unique_ptrINS_11__tree_nodeINS_12__value_typeINS_12basic_stringIcNS_11char_traitsIcEENS_9allocatorIcEEEENS_8functionIFvvEEEEEPvEENS_22__tree_node_destructorINS6_ISE_EEEEE7releaseB7v160006Ev, symObjAddr: 0x788, symBinAddr: 0x1000042B8, symSize: 0x44 }
  - { offsetInCU: 0xA223, offset: 0x19434, size: 0x8, addend: 0x0, symName: __ZNSt3__110unique_ptrINS_11__tree_nodeINS_12__value_typeINS_12basic_stringIcNS_11char_traitsIcEENS_9allocatorIcEEEENS_8functionIFvvEEEEEPvEENS_22__tree_node_destructorINS6_ISE_EEEEED1B7v160006Ev, symObjAddr: 0x7CC, symBinAddr: 0x1000042FC, symSize: 0x2C }
  - { offsetInCU: 0xA24D, offset: 0x1945E, size: 0x8, addend: 0x0, symName: __ZNSt3__115__tree_iteratorINS_12__value_typeINS_12basic_stringIcNS_11char_traitsIcEENS_9allocatorIcEEEENS_8functionIFvvEEEEEPNS_11__tree_nodeISB_PvEElEC1B7v160006ESF_, symObjAddr: 0x7F8, symBinAddr: 0x100004328, symSize: 0x34 }
  - { offsetInCU: 0xA290, offset: 0x194A1, size: 0x8, addend: 0x0, symName: __ZNSt3__14pairINS_15__tree_iteratorINS_12__value_typeINS_12basic_stringIcNS_11char_traitsIcEENS_9allocatorIcEEEENS_8functionIFvvEEEEEPNS_11__tree_nodeISC_PvEElEEbEC1B7v160006ISH_RbLSE_0EEEOT_OT0_, symObjAddr: 0x82C, symBinAddr: 0x10000435C, symSize: 0x3C }
  - { offsetInCU: 0xA2EF, offset: 0x19500, size: 0x8, addend: 0x0, symName: __ZNKSt3__16__treeINS_12__value_typeINS_12basic_stringIcNS_11char_traitsIcEENS_9allocatorIcEEEENS_8functionIFvvEEEEENS_19__map_value_compareIS7_SB_NS_4lessIS7_EELb1EEENS5_ISB_EEE10__root_ptrEv, symObjAddr: 0x890, symBinAddr: 0x100004398, symSize: 0x24 }
  - { offsetInCU: 0xA315, offset: 0x19526, size: 0x8, addend: 0x0, symName: __ZNSt3__16__treeINS_12__value_typeINS_12basic_stringIcNS_11char_traitsIcEENS_9allocatorIcEEEENS_8functionIFvvEEEEENS_19__map_value_compareIS7_SB_NS_4lessIS7_EELb1EEENS5_ISB_EEE10value_compB7v160006Ev, symObjAddr: 0x8B4, symBinAddr: 0x1000043BC, symSize: 0x28 }
  - { offsetInCU: 0xA33B, offset: 0x1954C, size: 0x8, addend: 0x0, symName: __ZNKSt3__119__map_value_compareINS_12basic_stringIcNS_11char_traitsIcEENS_9allocatorIcEEEENS_12__value_typeIS6_NS_8functionIFvvEEEEENS_4lessIS6_EELb1EEclB7v160006ERKS6_RKSB_, symObjAddr: 0x8DC, symBinAddr: 0x1000043E4, symSize: 0x50 }
  - { offsetInCU: 0xA37F, offset: 0x19590, size: 0x8, addend: 0x0, symName: __ZNKSt3__119__map_value_compareINS_12basic_stringIcNS_11char_traitsIcEENS_9allocatorIcEEEENS_12__value_typeIS6_NS_8functionIFvvEEEEENS_4lessIS6_EELb1EEclB7v160006ERKSB_RKS6_, symObjAddr: 0x92C, symBinAddr: 0x100004434, symSize: 0x48 }
  - { offsetInCU: 0xA3C3, offset: 0x195D4, size: 0x8, addend: 0x0, symName: __ZNSt3__117__compressed_pairImNS_19__map_value_compareINS_12basic_stringIcNS_11char_traitsIcEENS_9allocatorIcEEEENS_12__value_typeIS7_NS_8functionIFvvEEEEENS_4lessIS7_EELb1EEEE6secondB7v160006Ev, symObjAddr: 0xA18, symBinAddr: 0x10000447C, symSize: 0x24 }
  - { offsetInCU: 0xA3E9, offset: 0x195FA, size: 0x8, addend: 0x0, symName: __ZNSt3__122__compressed_pair_elemINS_19__map_value_compareINS_12basic_stringIcNS_11char_traitsIcEENS_9allocatorIcEEEENS_12__value_typeIS7_NS_8functionIFvvEEEEENS_4lessIS7_EELb1EEELi1ELb1EE5__getB7v160006Ev, symObjAddr: 0xA3C, symBinAddr: 0x1000044A0, symSize: 0x14 }
  - { offsetInCU: 0xA40F, offset: 0x19620, size: 0x8, addend: 0x0, symName: __ZNKSt3__14lessINS_12basic_stringIcNS_11char_traitsIcEENS_9allocatorIcEEEEEclB7v160006ERKS6_S9_, symObjAddr: 0xA50, symBinAddr: 0x1000044B4, symSize: 0x34 }
  - { offsetInCU: 0xA453, offset: 0x19664, size: 0x8, addend: 0x0, symName: __ZNKSt3__112__value_typeINS_12basic_stringIcNS_11char_traitsIcEENS_9allocatorIcEEEENS_8functionIFvvEEEE11__get_valueB7v160006Ev, symObjAddr: 0xA84, symBinAddr: 0x1000044E8, symSize: 0x24 }
  - { offsetInCU: 0xA479, offset: 0x1968A, size: 0x8, addend: 0x0, symName: __ZNKSt3__112basic_stringIcNS_11char_traitsIcEENS_9allocatorIcEEE7compareB7v160006ERKS5_, symObjAddr: 0xAE0, symBinAddr: 0x100004544, symSize: 0x4C }
  - { offsetInCU: 0xA4B0, offset: 0x196C1, size: 0x8, addend: 0x0, symName: __ZNKSt3__112basic_stringIcNS_11char_traitsIcEENS_9allocatorIcEEE7compareINS_17basic_string_viewIcS2_EEEENS_9enable_ifIXsr33__can_be_converted_to_string_viewIcS2_T_EE5valueEiE4typeERKSA_, symObjAddr: 0xB2C, symBinAddr: 0x100004590, symSize: 0x12C }
  - { offsetInCU: 0xA52D, offset: 0x1973E, size: 0x8, addend: 0x0, symName: __ZNKSt3__112basic_stringIcNS_11char_traitsIcEENS_9allocatorIcEEEcvNS_17basic_string_viewIcS2_EEB7v160006Ev, symObjAddr: 0xC58, symBinAddr: 0x1000046BC, symSize: 0x50 }
  - { offsetInCU: 0xA553, offset: 0x19764, size: 0x8, addend: 0x0, symName: __ZNKSt3__117basic_string_viewIcNS_11char_traitsIcEEE4sizeB7v160006Ev, symObjAddr: 0xCFC, symBinAddr: 0x10000470C, symSize: 0x18 }
  - { offsetInCU: 0xA579, offset: 0x1978A, size: 0x8, addend: 0x0, symName: __ZNSt3__111char_traitsIcE7compareEPKcS3_m, symObjAddr: 0xD14, symBinAddr: 0x100004724, symSize: 0x6C }
  - { offsetInCU: 0xA5B8, offset: 0x197C9, size: 0x8, addend: 0x0, symName: __ZNKSt3__117basic_string_viewIcNS_11char_traitsIcEEE4dataB7v160006Ev, symObjAddr: 0xDA8, symBinAddr: 0x100004790, symSize: 0x18 }
  - { offsetInCU: 0xA5E8, offset: 0x197F9, size: 0x8, addend: 0x0, symName: __ZNKSt3__16__lessImmEclB7v160006ERKmS3_, symObjAddr: 0x1018, symBinAddr: 0x10000485C, symSize: 0x34 }
  - { offsetInCU: 0xA62A, offset: 0x1983B, size: 0x8, addend: 0x0, symName: __ZNSt3__117basic_string_viewIcNS_11char_traitsIcEEEC1B7v160006EPKcm, symObjAddr: 0x104C, symBinAddr: 0x100004890, symSize: 0x3C }
  - { offsetInCU: 0xA672, offset: 0x19883, size: 0x8, addend: 0x0, symName: __ZNSt3__117basic_string_viewIcNS_11char_traitsIcEEEC2B7v160006EPKcm, symObjAddr: 0x1088, symBinAddr: 0x1000048CC, symSize: 0x50 }
  - { offsetInCU: 0xA6BA, offset: 0x198CB, size: 0x8, addend: 0x0, symName: __ZNSt3__116allocator_traitsINS_9allocatorINS_11__tree_nodeINS_12__value_typeINS_12basic_stringIcNS_11char_traitsIcEENS1_IcEEEENS_8functionIFvvEEEEEPvEEEEE8allocateB7v160006ERSF_m, symObjAddr: 0x1170, symBinAddr: 0x100004954, symSize: 0x2C }
  - { offsetInCU: 0xA6ED, offset: 0x198FE, size: 0x8, addend: 0x0, symName: __ZNSt3__122__tree_node_destructorINS_9allocatorINS_11__tree_nodeINS_12__value_typeINS_12basic_stringIcNS_11char_traitsIcEENS1_IcEEEENS_8functionIFvvEEEEEPvEEEEEC1B7v160006ERSF_b, symObjAddr: 0x119C, symBinAddr: 0x100004980, symSize: 0x48 }
  - { offsetInCU: 0xA73A, offset: 0x1994B, size: 0x8, addend: 0x0, symName: __ZNSt3__110unique_ptrINS_11__tree_nodeINS_12__value_typeINS_12basic_stringIcNS_11char_traitsIcEENS_9allocatorIcEEEENS_8functionIFvvEEEEEPvEENS_22__tree_node_destructorINS6_ISE_EEEEEC1B7v160006ILb1EvEEPSE_NS_16__dependent_typeINS_27__unique_ptr_deleter_sfinaeISH_EEXT_EE20__good_rval_ref_typeE, symObjAddr: 0x11E4, symBinAddr: 0x1000049C8, symSize: 0x3C }
  - { offsetInCU: 0xA78B, offset: 0x1999C, size: 0x8, addend: 0x0, symName: __ZNSt3__116allocator_traitsINS_9allocatorINS_11__tree_nodeINS_12__value_typeINS_12basic_stringIcNS_11char_traitsIcEENS1_IcEEEENS_8functionIFvvEEEEEPvEEEEE9constructB7v160006INS_4pairIKS8_SB_EEJSK_EvEEvRSF_PT_DpOT0_, symObjAddr: 0x1220, symBinAddr: 0x100004A04, symSize: 0x34 }
  - { offsetInCU: 0xA7E2, offset: 0x199F3, size: 0x8, addend: 0x0, symName: __ZNKSt3__110unique_ptrINS_11__tree_nodeINS_12__value_typeINS_12basic_stringIcNS_11char_traitsIcEENS_9allocatorIcEEEENS_8functionIFvvEEEEEPvEENS_22__tree_node_destructorINS6_ISE_EEEEEptB7v160006Ev, symObjAddr: 0x1278, symBinAddr: 0x100004A38, symSize: 0x28 }
  - { offsetInCU: 0xA808, offset: 0x19A19, size: 0x8, addend: 0x0, symName: __ZNSt3__110unique_ptrINS_11__tree_nodeINS_12__value_typeINS_12basic_stringIcNS_11char_traitsIcEENS_9allocatorIcEEEENS_8functionIFvvEEEEEPvEENS_22__tree_node_destructorINS6_ISE_EEEEE11get_deleterB7v160006Ev, symObjAddr: 0x12A0, symBinAddr: 0x100004A60, symSize: 0x24 }
  - { offsetInCU: 0xA82E, offset: 0x19A3F, size: 0x8, addend: 0x0, symName: __ZNSt3__19allocatorINS_11__tree_nodeINS_12__value_typeINS_12basic_stringIcNS_11char_traitsIcEENS0_IcEEEENS_8functionIFvvEEEEEPvEEE8allocateB7v160006Em, symObjAddr: 0x12FC, symBinAddr: 0x100004A84, symSize: 0x5C }
  - { offsetInCU: 0xA86C, offset: 0x19A7D, size: 0x8, addend: 0x0, symName: __ZNSt3__116allocator_traitsINS_9allocatorINS_11__tree_nodeINS_12__value_typeINS_12basic_stringIcNS_11char_traitsIcEENS1_IcEEEENS_8functionIFvvEEEEEPvEEEEE8max_sizeB7v160006ISF_vEEmRKSF_, symObjAddr: 0x1358, symBinAddr: 0x100004AE0, symSize: 0x24 }
  - { offsetInCU: 0xA89A, offset: 0x19AAB, size: 0x8, addend: 0x0, symName: __ZNKSt3__19allocatorINS_11__tree_nodeINS_12__value_typeINS_12basic_stringIcNS_11char_traitsIcEENS0_IcEEEENS_8functionIFvvEEEEEPvEEE8max_sizeB7v160006Ev, symObjAddr: 0x1410, symBinAddr: 0x100004B98, symSize: 0x20 }
  - { offsetInCU: 0xA8C0, offset: 0x19AD1, size: 0x8, addend: 0x0, symName: __ZNSt3__122__tree_node_destructorINS_9allocatorINS_11__tree_nodeINS_12__value_typeINS_12basic_stringIcNS_11char_traitsIcEENS1_IcEEEENS_8functionIFvvEEEEEPvEEEEEC2B7v160006ERSF_b, symObjAddr: 0x14A0, symBinAddr: 0x100004C08, symSize: 0x38 }
  - { offsetInCU: 0xA908, offset: 0x19B19, size: 0x8, addend: 0x0, symName: __ZNSt3__110unique_ptrINS_11__tree_nodeINS_12__value_typeINS_12basic_stringIcNS_11char_traitsIcEENS_9allocatorIcEEEENS_8functionIFvvEEEEEPvEENS_22__tree_node_destructorINS6_ISE_EEEEEC2B7v160006ILb1EvEEPSE_NS_16__dependent_typeINS_27__unique_ptr_deleter_sfinaeISH_EEXT_EE20__good_rval_ref_typeE, symObjAddr: 0x14D8, symBinAddr: 0x100004C40, symSize: 0x48 }
  - { offsetInCU: 0xA959, offset: 0x19B6A, size: 0x8, addend: 0x0, symName: __ZNSt3__117__compressed_pairIPNS_11__tree_nodeINS_12__value_typeINS_12basic_stringIcNS_11char_traitsIcEENS_9allocatorIcEEEENS_8functionIFvvEEEEEPvEENS_22__tree_node_destructorINS6_ISE_EEEEEC1B7v160006IRSF_SI_EEOT_OT0_, symObjAddr: 0x1520, symBinAddr: 0x100004C88, symSize: 0x3C }
  - { offsetInCU: 0xA9B1, offset: 0x19BC2, size: 0x8, addend: 0x0, symName: __ZNSt3__117__compressed_pairIPNS_11__tree_nodeINS_12__value_typeINS_12basic_stringIcNS_11char_traitsIcEENS_9allocatorIcEEEENS_8functionIFvvEEEEEPvEENS_22__tree_node_destructorINS6_ISE_EEEEEC2B7v160006IRSF_SI_EEOT_OT0_, symObjAddr: 0x155C, symBinAddr: 0x100004CC4, symSize: 0x48 }
  - { offsetInCU: 0xAA09, offset: 0x19C1A, size: 0x8, addend: 0x0, symName: __ZNSt3__122__compressed_pair_elemIPNS_11__tree_nodeINS_12__value_typeINS_12basic_stringIcNS_11char_traitsIcEENS_9allocatorIcEEEENS_8functionIFvvEEEEEPvEELi0ELb0EEC2B7v160006IRSF_vEEOT_, symObjAddr: 0x15A4, symBinAddr: 0x100004D0C, symSize: 0x24 }
  - { offsetInCU: 0xAA4B, offset: 0x19C5C, size: 0x8, addend: 0x0, symName: __ZNSt3__122__compressed_pair_elemINS_22__tree_node_destructorINS_9allocatorINS_11__tree_nodeINS_12__value_typeINS_12basic_stringIcNS_11char_traitsIcEENS2_IcEEEENS_8functionIFvvEEEEEPvEEEEEELi1ELb0EEC2B7v160006ISH_vEEOT_, symObjAddr: 0x15C8, symBinAddr: 0x100004D30, symSize: 0x24 }
  - { offsetInCU: 0xAA8D, offset: 0x19C9E, size: 0x8, addend: 0x0, symName: __ZNSt3__19allocatorINS_11__tree_nodeINS_12__value_typeINS_12basic_stringIcNS_11char_traitsIcEENS0_IcEEEENS_8functionIFvvEEEEEPvEEE9constructB7v160006INS_4pairIKS7_SA_EEJSI_EEEvPT_DpOT0_, symObjAddr: 0x15EC, symBinAddr: 0x100004D54, symSize: 0x30 }
  - { offsetInCU: 0xAAE3, offset: 0x19CF4, size: 0x8, addend: 0x0, symName: __ZNSt3__14pairIKNS_12basic_stringIcNS_11char_traitsIcEENS_9allocatorIcEEEENS_8functionIFvvEEEEC1EOSB_, symObjAddr: 0x161C, symBinAddr: 0x100004D84, symSize: 0x34 }
  - { offsetInCU: 0xAB18, offset: 0x19D29, size: 0x8, addend: 0x0, symName: __ZNSt3__14pairIKNS_12basic_stringIcNS_11char_traitsIcEENS_9allocatorIcEEEENS_8functionIFvvEEEEC2EOSB_, symObjAddr: 0x1650, symBinAddr: 0x100004DB8, symSize: 0x48 }
  - { offsetInCU: 0xAB4D, offset: 0x19D5E, size: 0x8, addend: 0x0, symName: __ZNSt3__18functionIFvvEEC1EOS2_, symObjAddr: 0x1698, symBinAddr: 0x100004E00, symSize: 0x34 }
  - { offsetInCU: 0xAB88, offset: 0x19D99, size: 0x8, addend: 0x0, symName: __ZNSt3__18functionIFvvEEC2EOS2_, symObjAddr: 0x16CC, symBinAddr: 0x100004E34, symSize: 0x34 }
  - { offsetInCU: 0xABC3, offset: 0x19DD4, size: 0x8, addend: 0x0, symName: __ZNSt3__110__function12__value_funcIFvvEEC1B7v160006EOS3_, symObjAddr: 0x1700, symBinAddr: 0x100004E68, symSize: 0x34 }
  - { offsetInCU: 0xABFC, offset: 0x19E0D, size: 0x8, addend: 0x0, symName: __ZNSt3__110__function12__value_funcIFvvEEC2B7v160006EOS3_, symObjAddr: 0x1734, symBinAddr: 0x100004E9C, symSize: 0xD0 }
  - { offsetInCU: 0xAC35, offset: 0x19E46, size: 0x8, addend: 0x0, symName: __ZNSt3__110__function12__value_funcIFvvEE9__as_baseEPv, symObjAddr: 0x1804, symBinAddr: 0x100004F6C, symSize: 0x14 }
  - { offsetInCU: 0xAC59, offset: 0x19E6A, size: 0x8, addend: 0x0, symName: __ZNKSt3__117__compressed_pairIPNS_11__tree_nodeINS_12__value_typeINS_12basic_stringIcNS_11char_traitsIcEENS_9allocatorIcEEEENS_8functionIFvvEEEEEPvEENS_22__tree_node_destructorINS6_ISE_EEEEE5firstB7v160006Ev, symObjAddr: 0x1874, symBinAddr: 0x100004F80, symSize: 0x24 }
  - { offsetInCU: 0xAC7F, offset: 0x19E90, size: 0x8, addend: 0x0, symName: __ZNKSt3__122__compressed_pair_elemIPNS_11__tree_nodeINS_12__value_typeINS_12basic_stringIcNS_11char_traitsIcEENS_9allocatorIcEEEENS_8functionIFvvEEEEEPvEELi0ELb0EE5__getB7v160006Ev, symObjAddr: 0x1898, symBinAddr: 0x100004FA4, symSize: 0x14 }
  - { offsetInCU: 0xACA5, offset: 0x19EB6, size: 0x8, addend: 0x0, symName: __ZNSt3__117__compressed_pairIPNS_11__tree_nodeINS_12__value_typeINS_12basic_stringIcNS_11char_traitsIcEENS_9allocatorIcEEEENS_8functionIFvvEEEEEPvEENS_22__tree_node_destructorINS6_ISE_EEEEE6secondB7v160006Ev, symObjAddr: 0x18AC, symBinAddr: 0x100004FB8, symSize: 0x28 }
  - { offsetInCU: 0xACCB, offset: 0x19EDC, size: 0x8, addend: 0x0, symName: __ZNSt3__122__compressed_pair_elemINS_22__tree_node_destructorINS_9allocatorINS_11__tree_nodeINS_12__value_typeINS_12basic_stringIcNS_11char_traitsIcEENS2_IcEEEENS_8functionIFvvEEEEEPvEEEEEELi1ELb0EE5__getB7v160006Ev, symObjAddr: 0x18D4, symBinAddr: 0x100004FE0, symSize: 0x14 }
  - { offsetInCU: 0xACF1, offset: 0x19F02, size: 0x8, addend: 0x0, symName: __ZNSt3__16__treeINS_12__value_typeINS_12basic_stringIcNS_11char_traitsIcEENS_9allocatorIcEEEENS_8functionIFvvEEEEENS_19__map_value_compareIS7_SB_NS_4lessIS7_EELb1EEENS5_ISB_EEE4sizeB7v160006Ev, symObjAddr: 0x1C28, symBinAddr: 0x100005320, symSize: 0x28 }
  - { offsetInCU: 0xAD17, offset: 0x19F28, size: 0x8, addend: 0x0, symName: __ZNSt3__116__tree_node_baseIPvE12__set_parentB7v160006EPS2_, symObjAddr: 0x1E38, symBinAddr: 0x1000054EC, symSize: 0x20 }
  - { offsetInCU: 0xAD4C, offset: 0x19F5D, size: 0x8, addend: 0x0, symName: __ZNSt3__117__compressed_pairImNS_19__map_value_compareINS_12basic_stringIcNS_11char_traitsIcEENS_9allocatorIcEEEENS_12__value_typeIS7_NS_8functionIFvvEEEEENS_4lessIS7_EELb1EEEE5firstB7v160006Ev, symObjAddr: 0x1E58, symBinAddr: 0x10000550C, symSize: 0x24 }
  - { offsetInCU: 0xAD72, offset: 0x19F83, size: 0x8, addend: 0x0, symName: __ZNSt3__122__compressed_pair_elemImLi0ELb0EE5__getB7v160006Ev, symObjAddr: 0x1E7C, symBinAddr: 0x100005530, symSize: 0x14 }
  - { offsetInCU: 0xAD98, offset: 0x19FA9, size: 0x8, addend: 0x0, symName: __ZNSt3__117__compressed_pairIPNS_11__tree_nodeINS_12__value_typeINS_12basic_stringIcNS_11char_traitsIcEENS_9allocatorIcEEEENS_8functionIFvvEEEEEPvEENS_22__tree_node_destructorINS6_ISE_EEEEE5firstB7v160006Ev, symObjAddr: 0x1E90, symBinAddr: 0x100005544, symSize: 0x24 }
  - { offsetInCU: 0xADBE, offset: 0x19FCF, size: 0x8, addend: 0x0, symName: __ZNSt3__122__compressed_pair_elemIPNS_11__tree_nodeINS_12__value_typeINS_12basic_stringIcNS_11char_traitsIcEENS_9allocatorIcEEEENS_8functionIFvvEEEEEPvEELi0ELb0EE5__getB7v160006Ev, symObjAddr: 0x1EB4, symBinAddr: 0x100005568, symSize: 0x14 }
  - { offsetInCU: 0xADE4, offset: 0x19FF5, size: 0x8, addend: 0x0, symName: __ZNSt3__110unique_ptrINS_11__tree_nodeINS_12__value_typeINS_12basic_stringIcNS_11char_traitsIcEENS_9allocatorIcEEEENS_8functionIFvvEEEEEPvEENS_22__tree_node_destructorINS6_ISE_EEEEED2B7v160006Ev, symObjAddr: 0x1EC8, symBinAddr: 0x10000557C, symSize: 0x30 }
  - { offsetInCU: 0xAE0E, offset: 0x1A01F, size: 0x8, addend: 0x0, symName: __ZNSt3__110unique_ptrINS_11__tree_nodeINS_12__value_typeINS_12basic_stringIcNS_11char_traitsIcEENS_9allocatorIcEEEENS_8functionIFvvEEEEEPvEENS_22__tree_node_destructorINS6_ISE_EEEEE5resetB7v160006EPSE_, symObjAddr: 0x1EF8, symBinAddr: 0x1000055AC, symSize: 0x78 }
  - { offsetInCU: 0xAE52, offset: 0x1A063, size: 0x8, addend: 0x0, symName: __ZNSt3__122__tree_node_destructorINS_9allocatorINS_11__tree_nodeINS_12__value_typeINS_12basic_stringIcNS_11char_traitsIcEENS1_IcEEEENS_8functionIFvvEEEEEPvEEEEEclB7v160006EPSE_, symObjAddr: 0x1F70, symBinAddr: 0x100005624, symSize: 0x98 }
  - { offsetInCU: 0xAE87, offset: 0x1A098, size: 0x8, addend: 0x0, symName: __ZNSt3__115__tree_iteratorINS_12__value_typeINS_12basic_stringIcNS_11char_traitsIcEENS_9allocatorIcEEEENS_8functionIFvvEEEEEPNS_11__tree_nodeISB_PvEElEC2B7v160006ESF_, symObjAddr: 0x21B0, symBinAddr: 0x1000056BC, symSize: 0x20 }
  - { offsetInCU: 0xAEC0, offset: 0x1A0D1, size: 0x8, addend: 0x0, symName: __ZNSt3__14pairINS_15__tree_iteratorINS_12__value_typeINS_12basic_stringIcNS_11char_traitsIcEENS_9allocatorIcEEEENS_8functionIFvvEEEEEPNS_11__tree_nodeISC_PvEElEEbEC2B7v160006ISH_RbLSE_0EEEOT_OT0_, symObjAddr: 0x21D0, symBinAddr: 0x1000056DC, symSize: 0x38 }
  - { offsetInCU: 0xAF1F, offset: 0x1A130, size: 0x8, addend: 0x0, symName: __ZNSt3__14pairINS_14__map_iteratorINS_15__tree_iteratorINS_12__value_typeINS_12basic_stringIcNS_11char_traitsIcEENS_9allocatorIcEEEENS_8functionIFvvEEEEEPNS_11__tree_nodeISD_PvEElEEEEbEC2B7v160006ISI_bLSF_0EEEONS0_IT_T0_EE, symObjAddr: 0x2208, symBinAddr: 0x100005714, symSize: 0x50 }
  - { offsetInCU: 0xAF76, offset: 0x1A187, size: 0x8, addend: 0x0, symName: __ZNSt3__112basic_stringIcNS_11char_traitsIcEENS_9allocatorIcEEEC1B7v160006IDnEEPKc, symObjAddr: 0x22AC, symBinAddr: 0x100005764, symSize: 0x34 }
  - { offsetInCU: 0xB086, offset: 0x1A297, size: 0x8, addend: 0x0, symName: __ZNSt3__18optionalINS_12basic_stringIcNS_11char_traitsIcEENS_9allocatorIcEEEEEC1B7v160006ENS_9nullopt_tE, symObjAddr: 0x22E0, symBinAddr: 0x100005798, symSize: 0x2C }
  - { offsetInCU: 0xB0BC, offset: 0x1A2CD, size: 0x8, addend: 0x0, symName: __ZNSt3__18optionalINS_12basic_stringIcNS_11char_traitsIcEENS_9allocatorIcEEEEED1Ev, symObjAddr: 0x230C, symBinAddr: 0x1000057C4, symSize: 0x2C }
  - { offsetInCU: 0xB0EF, offset: 0x1A300, size: 0x8, addend: 0x0, symName: __ZN15other_namespace12_GLOBAL__N_13fooEv, symObjAddr: 0x2338, symBinAddr: 0x1000057F0, symSize: 0xC4 }
  - { offsetInCU: 0xB10B, offset: 0x1A31C, size: 0x8, addend: 0x0, symName: __ZNSt3__112basic_stringIcNS_11char_traitsIcEENS_9allocatorIcEEEC2B7v160006IDnEEPKc, symObjAddr: 0x23FC, symBinAddr: 0x1000058B4, symSize: 0x60 }
  - { offsetInCU: 0xB149, offset: 0x1A35A, size: 0x8, addend: 0x0, symName: __ZNSt3__18optionalINS_12basic_stringIcNS_11char_traitsIcEENS_9allocatorIcEEEEEC2B7v160006ENS_9nullopt_tE, symObjAddr: 0x25BC, symBinAddr: 0x100005914, symSize: 0x2C }
  - { offsetInCU: 0xB17F, offset: 0x1A390, size: 0x8, addend: 0x0, symName: __ZNSt3__127__optional_move_assign_baseINS_12basic_stringIcNS_11char_traitsIcEENS_9allocatorIcEEEELb0EEC2B7v160006Ev, symObjAddr: 0x25E8, symBinAddr: 0x100005940, symSize: 0x2C }
  - { offsetInCU: 0xB1A9, offset: 0x1A3BA, size: 0x8, addend: 0x0, symName: __ZNSt3__127__optional_copy_assign_baseINS_12basic_stringIcNS_11char_traitsIcEENS_9allocatorIcEEEELb0EEC2B7v160006Ev, symObjAddr: 0x2614, symBinAddr: 0x10000596C, symSize: 0x2C }
  - { offsetInCU: 0xB1D3, offset: 0x1A3E4, size: 0x8, addend: 0x0, symName: __ZNSt3__120__optional_move_baseINS_12basic_stringIcNS_11char_traitsIcEENS_9allocatorIcEEEELb0EEC2B7v160006Ev, symObjAddr: 0x2640, symBinAddr: 0x100005998, symSize: 0x2C }
  - { offsetInCU: 0xB1FD, offset: 0x1A40E, size: 0x8, addend: 0x0, symName: __ZNSt3__120__optional_copy_baseINS_12basic_stringIcNS_11char_traitsIcEENS_9allocatorIcEEEELb0EEC2B7v160006Ev, symObjAddr: 0x266C, symBinAddr: 0x1000059C4, symSize: 0x2C }
  - { offsetInCU: 0xB227, offset: 0x1A438, size: 0x8, addend: 0x0, symName: __ZNSt3__123__optional_storage_baseINS_12basic_stringIcNS_11char_traitsIcEENS_9allocatorIcEEEELb0EEC2Ev, symObjAddr: 0x2698, symBinAddr: 0x1000059F0, symSize: 0x2C }
  - { offsetInCU: 0xB254, offset: 0x1A465, size: 0x8, addend: 0x0, symName: __ZNSt3__124__optional_destruct_baseINS_12basic_stringIcNS_11char_traitsIcEENS_9allocatorIcEEEELb0EEC2B7v160006Ev, symObjAddr: 0x26C4, symBinAddr: 0x100005A1C, symSize: 0x1C }
  - { offsetInCU: 0xB27E, offset: 0x1A48F, size: 0x8, addend: 0x0, symName: __ZNSt3__18optionalINS_12basic_stringIcNS_11char_traitsIcEENS_9allocatorIcEEEEED2Ev, symObjAddr: 0x26E0, symBinAddr: 0x100005A38, symSize: 0x2C }
  - { offsetInCU: 0xB2AB, offset: 0x1A4BC, size: 0x8, addend: 0x0, symName: __ZNSt3__127__optional_move_assign_baseINS_12basic_stringIcNS_11char_traitsIcEENS_9allocatorIcEEEELb0EED2Ev, symObjAddr: 0x270C, symBinAddr: 0x100005A64, symSize: 0x2C }
  - { offsetInCU: 0xB2D8, offset: 0x1A4E9, size: 0x8, addend: 0x0, symName: __ZNSt3__127__optional_copy_assign_baseINS_12basic_stringIcNS_11char_traitsIcEENS_9allocatorIcEEEELb0EED2Ev, symObjAddr: 0x2738, symBinAddr: 0x100005A90, symSize: 0x2C }
  - { offsetInCU: 0xB305, offset: 0x1A516, size: 0x8, addend: 0x0, symName: __ZNSt3__120__optional_move_baseINS_12basic_stringIcNS_11char_traitsIcEENS_9allocatorIcEEEELb0EED2Ev, symObjAddr: 0x2764, symBinAddr: 0x100005ABC, symSize: 0x2C }
  - { offsetInCU: 0xB332, offset: 0x1A543, size: 0x8, addend: 0x0, symName: __ZNSt3__120__optional_copy_baseINS_12basic_stringIcNS_11char_traitsIcEENS_9allocatorIcEEEELb0EED2Ev, symObjAddr: 0x2790, symBinAddr: 0x100005AE8, symSize: 0x2C }
  - { offsetInCU: 0xB35F, offset: 0x1A570, size: 0x8, addend: 0x0, symName: __ZNSt3__123__optional_storage_baseINS_12basic_stringIcNS_11char_traitsIcEENS_9allocatorIcEEEELb0EED2Ev, symObjAddr: 0x27BC, symBinAddr: 0x100005B14, symSize: 0x2C }
  - { offsetInCU: 0xB38C, offset: 0x1A59D, size: 0x8, addend: 0x0, symName: __ZNSt3__124__optional_destruct_baseINS_12basic_stringIcNS_11char_traitsIcEENS_9allocatorIcEEEELb0EED2B7v160006Ev, symObjAddr: 0x27E8, symBinAddr: 0x100005B40, symSize: 0x48 }
  - { offsetInCU: 0xB3B6, offset: 0x1A5C7, size: 0x8, addend: 0x0, symName: __ZNSt3__14pairIKNS_12basic_stringIcNS_11char_traitsIcEENS_9allocatorIcEEEENS_8functionIFvvEEEEC2B7v160006IRA39_KcRS9_LPv0EEEOT_OT0_, symObjAddr: 0x2830, symBinAddr: 0x100005B88, symSize: 0x70 }
  - { offsetInCU: 0xB415, offset: 0x1A626, size: 0x8, addend: 0x0, symName: __ZNSt3__18functionIFvvEEC1IPS1_vEET_, symObjAddr: 0x28A0, symBinAddr: 0x100005BF8, symSize: 0x34 }
  - { offsetInCU: 0xB45A, offset: 0x1A66B, size: 0x8, addend: 0x0, symName: __ZNSt3__18functionIFvvEEC2IPS1_vEET_, symObjAddr: 0x28D4, symBinAddr: 0x100005C2C, symSize: 0x38 }
  - { offsetInCU: 0xB49F, offset: 0x1A6B0, size: 0x8, addend: 0x0, symName: __ZNSt3__110__function12__value_funcIFvvEEC1B7v160006IPS2_vEEOT_, symObjAddr: 0x290C, symBinAddr: 0x100005C64, symSize: 0x50 }
  - { offsetInCU: 0xB4E2, offset: 0x1A6F3, size: 0x8, addend: 0x0, symName: __ZNSt3__19allocatorIPFvvEEC1B7v160006Ev, symObjAddr: 0x295C, symBinAddr: 0x100005CB4, symSize: 0x2C }
  - { offsetInCU: 0xB50C, offset: 0x1A71D, size: 0x8, addend: 0x0, symName: __ZNSt3__110__function12__value_funcIFvvEEC1B7v160006IPS2_NS_9allocatorIS5_EEEEOT_RKT0_, symObjAddr: 0x2988, symBinAddr: 0x100005CE0, symSize: 0x3C }
  - { offsetInCU: 0xB566, offset: 0x1A777, size: 0x8, addend: 0x0, symName: __ZNSt3__19allocatorIPFvvEEC2B7v160006Ev, symObjAddr: 0x29C4, symBinAddr: 0x100005D1C, symSize: 0x2C }
  - { offsetInCU: 0xB590, offset: 0x1A7A1, size: 0x8, addend: 0x0, symName: __ZNSt3__116__non_trivial_ifILb1ENS_9allocatorIPFvvEEEEC2B7v160006Ev, symObjAddr: 0x29F0, symBinAddr: 0x100005D48, symSize: 0x14 }
  - { offsetInCU: 0xB5BA, offset: 0x1A7CB, size: 0x8, addend: 0x0, symName: __ZNSt3__110__function12__value_funcIFvvEEC2B7v160006IPS2_NS_9allocatorIS5_EEEEOT_RKT0_, symObjAddr: 0x2A04, symBinAddr: 0x100005D5C, symSize: 0x98 }
  - { offsetInCU: 0xB660, offset: 0x1A871, size: 0x8, addend: 0x0, symName: __ZNSt3__19allocatorINS_10__function6__funcIPFvvENS0_IS4_EES3_EEEC1B7v160006IS4_EERKNS0_IT_EE, symObjAddr: 0x2ABC, symBinAddr: 0x100005E14, symSize: 0x34 }
  - { offsetInCU: 0xB6A3, offset: 0x1A8B4, size: 0x8, addend: 0x0, symName: __ZNSt3__19allocatorIPFvvEEC1B7v160006INS_10__function6__funcIS2_S3_S1_EEEERKNS0_IT_EE, symObjAddr: 0x2AF0, symBinAddr: 0x100005E48, symSize: 0x34 }
  - { offsetInCU: 0xB6E1, offset: 0x1A8F2, size: 0x8, addend: 0x0, symName: __ZNSt3__110__function6__funcIPFvvENS_9allocatorIS3_EES2_EC1B7v160006EOS3_OS5_, symObjAddr: 0x2B24, symBinAddr: 0x100005E7C, symSize: 0x3C }
  - { offsetInCU: 0xB729, offset: 0x1A93A, size: 0x8, addend: 0x0, symName: __ZNSt3__19allocatorINS_10__function6__funcIPFvvENS0_IS4_EES3_EEEC2B7v160006IS4_EERKNS0_IT_EE, symObjAddr: 0x2B60, symBinAddr: 0x100005EB8, symSize: 0x30 }
  - { offsetInCU: 0xB767, offset: 0x1A978, size: 0x8, addend: 0x0, symName: __ZNSt3__116__non_trivial_ifILb1ENS_9allocatorINS_10__function6__funcIPFvvENS1_IS5_EES4_EEEEEC2B7v160006Ev, symObjAddr: 0x2B90, symBinAddr: 0x100005EE8, symSize: 0x14 }
  - { offsetInCU: 0xB791, offset: 0x1A9A2, size: 0x8, addend: 0x0, symName: __ZNSt3__19allocatorIPFvvEEC2B7v160006INS_10__function6__funcIS2_S3_S1_EEEERKNS0_IT_EE, symObjAddr: 0x2BA4, symBinAddr: 0x100005EFC, symSize: 0x30 }
  - { offsetInCU: 0xB7CF, offset: 0x1A9E0, size: 0x8, addend: 0x0, symName: __ZNSt3__110__function6__funcIPFvvENS_9allocatorIS3_EES2_EC2B7v160006EOS3_OS5_, symObjAddr: 0x2BD4, symBinAddr: 0x100005F2C, symSize: 0x88 }
  - { offsetInCU: 0xB817, offset: 0x1AA28, size: 0x8, addend: 0x0, symName: __ZNSt3__110__function6__baseIFvvEEC2B7v160006Ev, symObjAddr: 0x2C5C, symBinAddr: 0x100005FB4, symSize: 0x24 }
  - { offsetInCU: 0xB841, offset: 0x1AA52, size: 0x8, addend: 0x0, symName: __ZNSt3__110__function12__alloc_funcIPFvvENS_9allocatorIS3_EES2_EC1B7v160006EOS3_OS5_, symObjAddr: 0x2C80, symBinAddr: 0x100005FD8, symSize: 0x3C }
  - { offsetInCU: 0xB887, offset: 0x1AA98, size: 0x8, addend: 0x0, symName: __ZNSt3__110__function6__baseIFvvEED2Ev, symObjAddr: 0x2CBC, symBinAddr: 0x100006014, symSize: 0x14 }
  - { offsetInCU: 0xB8B1, offset: 0x1AAC2, size: 0x8, addend: 0x0, symName: __ZNSt3__110__function6__funcIPFvvENS_9allocatorIS3_EES2_ED1Ev, symObjAddr: 0x2CD0, symBinAddr: 0x100006028, symSize: 0x2C }
  - { offsetInCU: 0xB8DE, offset: 0x1AAEF, size: 0x8, addend: 0x0, symName: __ZNSt3__110__function6__funcIPFvvENS_9allocatorIS3_EES2_ED0Ev, symObjAddr: 0x2CFC, symBinAddr: 0x100006054, symSize: 0x30 }
  - { offsetInCU: 0xB90B, offset: 0x1AB1C, size: 0x8, addend: 0x0, symName: __ZNKSt3__110__function6__funcIPFvvENS_9allocatorIS3_EES2_E7__cloneEv, symObjAddr: 0x2D2C, symBinAddr: 0x100006084, symSize: 0xFC }
  - { offsetInCU: 0xB95D, offset: 0x1AB6E, size: 0x8, addend: 0x0, symName: __ZNKSt3__110__function6__funcIPFvvENS_9allocatorIS3_EES2_E7__cloneEPNS0_6__baseIS2_EE, symObjAddr: 0x2E28, symBinAddr: 0x100006180, symSize: 0x58 }
  - { offsetInCU: 0xB994, offset: 0x1ABA5, size: 0x8, addend: 0x0, symName: __ZNSt3__110__function6__funcIPFvvENS_9allocatorIS3_EES2_E7destroyEv, symObjAddr: 0x2E80, symBinAddr: 0x1000061D8, symSize: 0x28 }
  - { offsetInCU: 0xB9BC, offset: 0x1ABCD, size: 0x8, addend: 0x0, symName: __ZNSt3__110__function6__funcIPFvvENS_9allocatorIS3_EES2_E18destroy_deallocateEv, symObjAddr: 0x2EA8, symBinAddr: 0x100006200, symSize: 0x58 }
  - { offsetInCU: 0xB9FF, offset: 0x1AC10, size: 0x8, addend: 0x0, symName: __ZNSt3__110__function6__funcIPFvvENS_9allocatorIS3_EES2_EclEv, symObjAddr: 0x2F00, symBinAddr: 0x100006258, symSize: 0x28 }
  - { offsetInCU: 0xBA27, offset: 0x1AC38, size: 0x8, addend: 0x0, symName: __ZNKSt3__110__function6__funcIPFvvENS_9allocatorIS3_EES2_E6targetERKSt9type_info, symObjAddr: 0x2F28, symBinAddr: 0x100006280, symSize: 0x60 }
  - { offsetInCU: 0xBA5E, offset: 0x1AC6F, size: 0x8, addend: 0x0, symName: __ZNKSt3__110__function6__funcIPFvvENS_9allocatorIS3_EES2_E11target_typeEv, symObjAddr: 0x2F88, symBinAddr: 0x1000062E0, symSize: 0x18 }
  - { offsetInCU: 0xBA86, offset: 0x1AC97, size: 0x8, addend: 0x0, symName: __ZNSt3__110__function6__baseIFvvEED1Ev, symObjAddr: 0x2FA0, symBinAddr: 0x1000062F8, symSize: 0x14 }
  - { offsetInCU: 0xBAB0, offset: 0x1ACC1, size: 0x8, addend: 0x0, symName: __ZNSt3__110__function6__baseIFvvEED0Ev, symObjAddr: 0x2FB4, symBinAddr: 0x10000630C, symSize: 0xC }
  - { offsetInCU: 0xBADA, offset: 0x1ACEB, size: 0x8, addend: 0x0, symName: __ZNSt3__110__function12__alloc_funcIPFvvENS_9allocatorIS3_EES2_EC2B7v160006EOS3_OS5_, symObjAddr: 0x2FC0, symBinAddr: 0x100006318, symSize: 0x5C }
  - { offsetInCU: 0xBB20, offset: 0x1AD31, size: 0x8, addend: 0x0, symName: __ZNSt3__117__compressed_pairIPFvvENS_9allocatorIS2_EEEC1B7v160006IJOS2_EJOS4_EEENS_21piecewise_construct_tENS_5tupleIJDpT_EEENSA_IJDpT0_EEE, symObjAddr: 0x3074, symBinAddr: 0x1000063CC, symSize: 0x3C }
  - { offsetInCU: 0xBB8A, offset: 0x1AD9B, size: 0x8, addend: 0x0, symName: __ZNSt3__15tupleIJOPFvvEEEC1B7v160006IJS2_ELi0EEEDpOT_, symObjAddr: 0x30B0, symBinAddr: 0x100006408, symSize: 0x34 }
  - { offsetInCU: 0xBBD5, offset: 0x1ADE6, size: 0x8, addend: 0x0, symName: __ZNSt3__15tupleIJOPFvvEEEC2B7v160006IJS2_ELi0EEEDpOT_, symObjAddr: 0x30E4, symBinAddr: 0x10000643C, symSize: 0x34 }
  - { offsetInCU: 0xBC20, offset: 0x1AE31, size: 0x8, addend: 0x0, symName: __ZNSt3__112__tuple_implINS_15__tuple_indicesIJLm0EEEEJOPFvvEEEC1B7v160006IJLm0EEJS5_EJEJEJS4_EEENS1_IJXspT_EEEENS_13__tuple_typesIJDpT0_EEENS1_IJXspT1_EEEENS9_IJDpT2_EEEDpOT3_, symObjAddr: 0x3118, symBinAddr: 0x100006470, symSize: 0x34 }
  - { offsetInCU: 0xBCB6, offset: 0x1AEC7, size: 0x8, addend: 0x0, symName: __ZNSt3__112__tuple_implINS_15__tuple_indicesIJLm0EEEEJOPFvvEEEC2B7v160006IJLm0EEJS5_EJEJEJS4_EEENS1_IJXspT_EEEENS_13__tuple_typesIJDpT0_EEENS1_IJXspT1_EEEENS9_IJDpT2_EEEDpOT3_, symObjAddr: 0x314C, symBinAddr: 0x1000064A4, symSize: 0x34 }
  - { offsetInCU: 0xBD4C, offset: 0x1AF5D, size: 0x8, addend: 0x0, symName: __ZNSt3__112__tuple_leafILm0EOPFvvELb0EEC2B7v160006IS2_vEEOT_, symObjAddr: 0x3180, symBinAddr: 0x1000064D8, symSize: 0x20 }
  - { offsetInCU: 0xBD8F, offset: 0x1AFA0, size: 0x8, addend: 0x0, symName: __ZNSt3__15tupleIJONS_9allocatorIPFvvEEEEEC1B7v160006IJS4_ELi0EEEDpOT_, symObjAddr: 0x31A0, symBinAddr: 0x1000064F8, symSize: 0x34 }
  - { offsetInCU: 0xBDDA, offset: 0x1AFEB, size: 0x8, addend: 0x0, symName: __ZNSt3__15tupleIJONS_9allocatorIPFvvEEEEEC2B7v160006IJS4_ELi0EEEDpOT_, symObjAddr: 0x31D4, symBinAddr: 0x10000652C, symSize: 0x34 }
  - { offsetInCU: 0xBE25, offset: 0x1B036, size: 0x8, addend: 0x0, symName: __ZNSt3__112__tuple_implINS_15__tuple_indicesIJLm0EEEEJONS_9allocatorIPFvvEEEEEC1B7v160006IJLm0EEJS7_EJEJEJS6_EEENS1_IJXspT_EEEENS_13__tuple_typesIJDpT0_EEENS1_IJXspT1_EEEENSB_IJDpT2_EEEDpOT3_, symObjAddr: 0x3208, symBinAddr: 0x100006560, symSize: 0x34 }
  - { offsetInCU: 0xBEBB, offset: 0x1B0CC, size: 0x8, addend: 0x0, symName: __ZNSt3__112__tuple_implINS_15__tuple_indicesIJLm0EEEEJONS_9allocatorIPFvvEEEEEC2B7v160006IJLm0EEJS7_EJEJEJS6_EEENS1_IJXspT_EEEENS_13__tuple_typesIJDpT0_EEENS1_IJXspT1_EEEENSB_IJDpT2_EEEDpOT3_, symObjAddr: 0x323C, symBinAddr: 0x100006594, symSize: 0x34 }
  - { offsetInCU: 0xBF51, offset: 0x1B162, size: 0x8, addend: 0x0, symName: __ZNSt3__112__tuple_leafILm0EONS_9allocatorIPFvvEEELb0EEC2B7v160006IS4_vEEOT_, symObjAddr: 0x3270, symBinAddr: 0x1000065C8, symSize: 0x20 }
  - { offsetInCU: 0xBF94, offset: 0x1B1A5, size: 0x8, addend: 0x0, symName: __ZNSt3__117__compressed_pairIPFvvENS_9allocatorIS2_EEEC2B7v160006IJOS2_EJOS4_EEENS_21piecewise_construct_tENS_5tupleIJDpT_EEENSA_IJDpT0_EEE, symObjAddr: 0x3290, symBinAddr: 0x1000065E8, symSize: 0x54 }
  - { offsetInCU: 0xBFFE, offset: 0x1B20F, size: 0x8, addend: 0x0, symName: __ZNSt3__122__compressed_pair_elemIPFvvELi0ELb0EEC2B7v160006IJOS2_EJLm0EEEENS_21piecewise_construct_tENS_5tupleIJDpT_EEENS_15__tuple_indicesIJXspT0_EEEE, symObjAddr: 0x32E4, symBinAddr: 0x10000663C, symSize: 0x44 }
  - { offsetInCU: 0xC064, offset: 0x1B275, size: 0x8, addend: 0x0, symName: __ZNSt3__122__compressed_pair_elemINS_9allocatorIPFvvEEELi1ELb1EEC2B7v160006IJOS4_EJLm0EEEENS_21piecewise_construct_tENS_5tupleIJDpT_EEENS_15__tuple_indicesIJXspT0_EEEE, symObjAddr: 0x3328, symBinAddr: 0x100006680, symSize: 0x38 }
  - { offsetInCU: 0xC0CA, offset: 0x1B2DB, size: 0x8, addend: 0x0, symName: __ZNSt3__112__tuple_leafILm0EOPFvvELb0EE3getB7v160006Ev, symObjAddr: 0x3384, symBinAddr: 0x1000066DC, symSize: 0x18 }
  - { offsetInCU: 0xC0F0, offset: 0x1B301, size: 0x8, addend: 0x0, symName: __ZNSt3__112__tuple_leafILm0EONS_9allocatorIPFvvEEELb0EE3getB7v160006Ev, symObjAddr: 0x33C0, symBinAddr: 0x100006718, symSize: 0x18 }
  - { offsetInCU: 0xC116, offset: 0x1B327, size: 0x8, addend: 0x0, symName: __ZNSt3__110__function6__funcIPFvvENS_9allocatorIS3_EES2_ED2Ev, symObjAddr: 0x33D8, symBinAddr: 0x100006730, symSize: 0x2C }
  - { offsetInCU: 0xC143, offset: 0x1B354, size: 0x8, addend: 0x0, symName: __ZNKSt3__110__function12__alloc_funcIPFvvENS_9allocatorIS3_EES2_E15__get_allocatorB7v160006Ev, symObjAddr: 0x3404, symBinAddr: 0x10000675C, symSize: 0x24 }
  - { offsetInCU: 0xC169, offset: 0x1B37A, size: 0x8, addend: 0x0, symName: __ZNSt3__19allocatorINS_10__function6__funcIPFvvENS0_IS4_EES3_EEE8allocateB7v160006Em, symObjAddr: 0x3428, symBinAddr: 0x100006780, symSize: 0x58 }
  - { offsetInCU: 0xC1AC, offset: 0x1B3BD, size: 0x8, addend: 0x0, symName: __ZNSt3__122__allocator_destructorINS_9allocatorINS_10__function6__funcIPFvvENS1_IS5_EES4_EEEEEC1B7v160006ERS8_m, symObjAddr: 0x3480, symBinAddr: 0x1000067D8, symSize: 0x3C }
  - { offsetInCU: 0xC27E, offset: 0x1B48F, size: 0x8, addend: 0x0, symName: __ZNSt3__110unique_ptrINS_10__function6__funcIPFvvENS_9allocatorIS4_EES3_EENS_22__allocator_destructorINS5_IS7_EEEEEC1B7v160006ILb1EvEEPS7_NS_16__dependent_typeINS_27__unique_ptr_deleter_sfinaeISA_EEXT_EE20__good_rval_ref_typeE, symObjAddr: 0x34BC, symBinAddr: 0x100006814, symSize: 0x3C }
  - { offsetInCU: 0xC2CF, offset: 0x1B4E0, size: 0x8, addend: 0x0, symName: __ZNKSt3__110unique_ptrINS_10__function6__funcIPFvvENS_9allocatorIS4_EES3_EENS_22__allocator_destructorINS5_IS7_EEEEE3getB7v160006Ev, symObjAddr: 0x34F8, symBinAddr: 0x100006850, symSize: 0x28 }
  - { offsetInCU: 0xC2F5, offset: 0x1B506, size: 0x8, addend: 0x0, symName: __ZNKSt3__110__function12__alloc_funcIPFvvENS_9allocatorIS3_EES2_E8__targetB7v160006Ev, symObjAddr: 0x3520, symBinAddr: 0x100006878, symSize: 0x24 }
  - { offsetInCU: 0xC31B, offset: 0x1B52C, size: 0x8, addend: 0x0, symName: __ZNSt3__110__function6__funcIPFvvENS_9allocatorIS3_EES2_EC1B7v160006ERKS3_OS5_, symObjAddr: 0x3544, symBinAddr: 0x10000689C, symSize: 0x3C }
  - { offsetInCU: 0xC363, offset: 0x1B574, size: 0x8, addend: 0x0, symName: __ZNSt3__110unique_ptrINS_10__function6__funcIPFvvENS_9allocatorIS4_EES3_EENS_22__allocator_destructorINS5_IS7_EEEEE7releaseB7v160006Ev, symObjAddr: 0x3580, symBinAddr: 0x1000068D8, symSize: 0x44 }
  - { offsetInCU: 0xC398, offset: 0x1B5A9, size: 0x8, addend: 0x0, symName: __ZNSt3__110unique_ptrINS_10__function6__funcIPFvvENS_9allocatorIS4_EES3_EENS_22__allocator_destructorINS5_IS7_EEEEED1B7v160006Ev, symObjAddr: 0x35C4, symBinAddr: 0x10000691C, symSize: 0x2C }
  - { offsetInCU: 0xC3C2, offset: 0x1B5D3, size: 0x8, addend: 0x0, symName: __ZNKSt3__117__compressed_pairIPFvvENS_9allocatorIS2_EEE6secondB7v160006Ev, symObjAddr: 0x35F0, symBinAddr: 0x100006948, symSize: 0x24 }
  - { offsetInCU: 0xC3E8, offset: 0x1B5F9, size: 0x8, addend: 0x0, symName: __ZNKSt3__122__compressed_pair_elemINS_9allocatorIPFvvEEELi1ELb1EE5__getB7v160006Ev, symObjAddr: 0x3614, symBinAddr: 0x10000696C, symSize: 0x14 }
  - { offsetInCU: 0xC418, offset: 0x1B629, size: 0x8, addend: 0x0, symName: __ZNSt3__116allocator_traitsINS_9allocatorINS_10__function6__funcIPFvvENS1_IS5_EES4_EEEEE8max_sizeB7v160006IS8_vEEmRKS8_, symObjAddr: 0x3628, symBinAddr: 0x100006980, symSize: 0x24 }
  - { offsetInCU: 0xC446, offset: 0x1B657, size: 0x8, addend: 0x0, symName: __ZNKSt3__19allocatorINS_10__function6__funcIPFvvENS0_IS4_EES3_EEE8max_sizeB7v160006Ev, symObjAddr: 0x364C, symBinAddr: 0x1000069A4, symSize: 0x14 }
  - { offsetInCU: 0xC46C, offset: 0x1B67D, size: 0x8, addend: 0x0, symName: __ZNSt3__122__allocator_destructorINS_9allocatorINS_10__function6__funcIPFvvENS1_IS5_EES4_EEEEEC2B7v160006ERS8_m, symObjAddr: 0x3660, symBinAddr: 0x1000069B8, symSize: 0x2C }
  - { offsetInCU: 0xC4B2, offset: 0x1B6C3, size: 0x8, addend: 0x0, symName: __ZNSt3__110unique_ptrINS_10__function6__funcIPFvvENS_9allocatorIS4_EES3_EENS_22__allocator_destructorINS5_IS7_EEEEEC2B7v160006ILb1EvEEPS7_NS_16__dependent_typeINS_27__unique_ptr_deleter_sfinaeISA_EEXT_EE20__good_rval_ref_typeE, symObjAddr: 0x368C, symBinAddr: 0x1000069E4, symSize: 0x48 }
  - { offsetInCU: 0xC503, offset: 0x1B714, size: 0x8, addend: 0x0, symName: __ZNSt3__117__compressed_pairIPNS_10__function6__funcIPFvvENS_9allocatorIS4_EES3_EENS_22__allocator_destructorINS5_IS7_EEEEEC1B7v160006IRS8_SB_EEOT_OT0_, symObjAddr: 0x36D4, symBinAddr: 0x100006A2C, symSize: 0x3C }
  - { offsetInCU: 0xC55B, offset: 0x1B76C, size: 0x8, addend: 0x0, symName: __ZNSt3__117__compressed_pairIPNS_10__function6__funcIPFvvENS_9allocatorIS4_EES3_EENS_22__allocator_destructorINS5_IS7_EEEEEC2B7v160006IRS8_SB_EEOT_OT0_, symObjAddr: 0x3710, symBinAddr: 0x100006A68, symSize: 0x48 }
  - { offsetInCU: 0xC5B3, offset: 0x1B7C4, size: 0x8, addend: 0x0, symName: __ZNSt3__122__compressed_pair_elemIPNS_10__function6__funcIPFvvENS_9allocatorIS4_EES3_EELi0ELb0EEC2B7v160006IRS8_vEEOT_, symObjAddr: 0x3758, symBinAddr: 0x100006AB0, symSize: 0x24 }
  - { offsetInCU: 0xC5F5, offset: 0x1B806, size: 0x8, addend: 0x0, symName: __ZNSt3__122__compressed_pair_elemINS_22__allocator_destructorINS_9allocatorINS_10__function6__funcIPFvvENS2_IS6_EES5_EEEEEELi1ELb0EEC2B7v160006ISA_vEEOT_, symObjAddr: 0x377C, symBinAddr: 0x100006AD4, symSize: 0x24 }
  - { offsetInCU: 0xC637, offset: 0x1B848, size: 0x8, addend: 0x0, symName: __ZNKSt3__117__compressed_pairIPNS_10__function6__funcIPFvvENS_9allocatorIS4_EES3_EENS_22__allocator_destructorINS5_IS7_EEEEE5firstB7v160006Ev, symObjAddr: 0x37A0, symBinAddr: 0x100006AF8, symSize: 0x24 }
  - { offsetInCU: 0xC65D, offset: 0x1B86E, size: 0x8, addend: 0x0, symName: __ZNKSt3__122__compressed_pair_elemIPNS_10__function6__funcIPFvvENS_9allocatorIS4_EES3_EELi0ELb0EE5__getB7v160006Ev, symObjAddr: 0x37C4, symBinAddr: 0x100006B1C, symSize: 0x14 }
  - { offsetInCU: 0xC683, offset: 0x1B894, size: 0x8, addend: 0x0, symName: __ZNKSt3__117__compressed_pairIPFvvENS_9allocatorIS2_EEE5firstB7v160006Ev, symObjAddr: 0x37D8, symBinAddr: 0x100006B30, symSize: 0x24 }
  - { offsetInCU: 0xC6A9, offset: 0x1B8BA, size: 0x8, addend: 0x0, symName: __ZNKSt3__122__compressed_pair_elemIPFvvELi0ELb0EE5__getB7v160006Ev, symObjAddr: 0x37FC, symBinAddr: 0x100006B54, symSize: 0x14 }
  - { offsetInCU: 0xC6CF, offset: 0x1B8E0, size: 0x8, addend: 0x0, symName: __ZNSt3__110__function6__funcIPFvvENS_9allocatorIS3_EES2_EC2B7v160006ERKS3_OS5_, symObjAddr: 0x3810, symBinAddr: 0x100006B68, symSize: 0x88 }
  - { offsetInCU: 0xC717, offset: 0x1B928, size: 0x8, addend: 0x0, symName: __ZNSt3__110__function12__alloc_funcIPFvvENS_9allocatorIS3_EES2_EC1B7v160006ERKS3_OS5_, symObjAddr: 0x3898, symBinAddr: 0x100006BF0, symSize: 0x3C }
  - { offsetInCU: 0xC75D, offset: 0x1B96E, size: 0x8, addend: 0x0, symName: __ZNSt3__110__function12__alloc_funcIPFvvENS_9allocatorIS3_EES2_EC2B7v160006ERKS3_OS5_, symObjAddr: 0x38D4, symBinAddr: 0x100006C2C, symSize: 0x5C }
  - { offsetInCU: 0xC7A3, offset: 0x1B9B4, size: 0x8, addend: 0x0, symName: __ZNSt3__117__compressed_pairIPFvvENS_9allocatorIS2_EEEC1B7v160006IJRKS2_EJOS4_EEENS_21piecewise_construct_tENS_5tupleIJDpT_EEENSB_IJDpT0_EEE, symObjAddr: 0x395C, symBinAddr: 0x100006CB4, symSize: 0x3C }
  - { offsetInCU: 0xC80D, offset: 0x1BA1E, size: 0x8, addend: 0x0, symName: __ZNSt3__15tupleIJRKPFvvEEEC1B7v160006INS_4_AndELi0EEES4_, symObjAddr: 0x3998, symBinAddr: 0x100006CF0, symSize: 0x34 }
  - { offsetInCU: 0xC857, offset: 0x1BA68, size: 0x8, addend: 0x0, symName: __ZNSt3__15tupleIJRKPFvvEEEC2B7v160006INS_4_AndELi0EEES4_, symObjAddr: 0x39CC, symBinAddr: 0x100006D24, symSize: 0x34 }
  - { offsetInCU: 0xC8A1, offset: 0x1BAB2, size: 0x8, addend: 0x0, symName: __ZNSt3__112__tuple_implINS_15__tuple_indicesIJLm0EEEEJRKPFvvEEEC1B7v160006IJLm0EEJS6_EJEJEJS6_EEENS1_IJXspT_EEEENS_13__tuple_typesIJDpT0_EEENS1_IJXspT1_EEEENSA_IJDpT2_EEEDpOT3_, symObjAddr: 0x3A00, symBinAddr: 0x100006D58, symSize: 0x34 }
  - { offsetInCU: 0xC937, offset: 0x1BB48, size: 0x8, addend: 0x0, symName: __ZNSt3__112__tuple_implINS_15__tuple_indicesIJLm0EEEEJRKPFvvEEEC2B7v160006IJLm0EEJS6_EJEJEJS6_EEENS1_IJXspT_EEEENS_13__tuple_typesIJDpT0_EEENS1_IJXspT1_EEEENSA_IJDpT2_EEEDpOT3_, symObjAddr: 0x3A34, symBinAddr: 0x100006D8C, symSize: 0x34 }
  - { offsetInCU: 0xC9CD, offset: 0x1BBDE, size: 0x8, addend: 0x0, symName: __ZNSt3__112__tuple_leafILm0ERKPFvvELb0EEC2B7v160006IS4_vEEOT_, symObjAddr: 0x3A68, symBinAddr: 0x100006DC0, symSize: 0x20 }
  - { offsetInCU: 0xCA10, offset: 0x1BC21, size: 0x8, addend: 0x0, symName: __ZNSt3__117__compressed_pairIPFvvENS_9allocatorIS2_EEEC2B7v160006IJRKS2_EJOS4_EEENS_21piecewise_construct_tENS_5tupleIJDpT_EEENSB_IJDpT0_EEE, symObjAddr: 0x3A88, symBinAddr: 0x100006DE0, symSize: 0x54 }
  - { offsetInCU: 0xCA7A, offset: 0x1BC8B, size: 0x8, addend: 0x0, symName: __ZNSt3__122__compressed_pair_elemIPFvvELi0ELb0EEC2B7v160006IJRKS2_EJLm0EEEENS_21piecewise_construct_tENS_5tupleIJDpT_EEENS_15__tuple_indicesIJXspT0_EEEE, symObjAddr: 0x3ADC, symBinAddr: 0x100006E34, symSize: 0x44 }
  - { offsetInCU: 0xCAE0, offset: 0x1BCF1, size: 0x8, addend: 0x0, symName: __ZNSt3__112__tuple_leafILm0ERKPFvvELb0EE3getB7v160006Ev, symObjAddr: 0x3B44, symBinAddr: 0x100006E9C, symSize: 0x18 }
  - { offsetInCU: 0xCB06, offset: 0x1BD17, size: 0x8, addend: 0x0, symName: __ZNSt3__117__compressed_pairIPNS_10__function6__funcIPFvvENS_9allocatorIS4_EES3_EENS_22__allocator_destructorINS5_IS7_EEEEE5firstB7v160006Ev, symObjAddr: 0x3B5C, symBinAddr: 0x100006EB4, symSize: 0x24 }
  - { offsetInCU: 0xCB2C, offset: 0x1BD3D, size: 0x8, addend: 0x0, symName: __ZNSt3__122__compressed_pair_elemIPNS_10__function6__funcIPFvvENS_9allocatorIS4_EES3_EELi0ELb0EE5__getB7v160006Ev, symObjAddr: 0x3B80, symBinAddr: 0x100006ED8, symSize: 0x14 }
  - { offsetInCU: 0xCB52, offset: 0x1BD63, size: 0x8, addend: 0x0, symName: __ZNSt3__110unique_ptrINS_10__function6__funcIPFvvENS_9allocatorIS4_EES3_EENS_22__allocator_destructorINS5_IS7_EEEEED2B7v160006Ev, symObjAddr: 0x3B94, symBinAddr: 0x100006EEC, symSize: 0x30 }
  - { offsetInCU: 0xCB7C, offset: 0x1BD8D, size: 0x8, addend: 0x0, symName: __ZNSt3__110unique_ptrINS_10__function6__funcIPFvvENS_9allocatorIS4_EES3_EENS_22__allocator_destructorINS5_IS7_EEEEE5resetB7v160006EPS7_, symObjAddr: 0x3BC4, symBinAddr: 0x100006F1C, symSize: 0x78 }
  - { offsetInCU: 0xCBC0, offset: 0x1BDD1, size: 0x8, addend: 0x0, symName: __ZNSt3__117__compressed_pairIPNS_10__function6__funcIPFvvENS_9allocatorIS4_EES3_EENS_22__allocator_destructorINS5_IS7_EEEEE6secondB7v160006Ev, symObjAddr: 0x3C3C, symBinAddr: 0x100006F94, symSize: 0x28 }
  - { offsetInCU: 0xCBE6, offset: 0x1BDF7, size: 0x8, addend: 0x0, symName: __ZNSt3__122__allocator_destructorINS_9allocatorINS_10__function6__funcIPFvvENS1_IS5_EES4_EEEEEclB7v160006EPS7_, symObjAddr: 0x3C64, symBinAddr: 0x100006FBC, symSize: 0x34 }
  - { offsetInCU: 0xCC1A, offset: 0x1BE2B, size: 0x8, addend: 0x0, symName: __ZNSt3__122__compressed_pair_elemINS_22__allocator_destructorINS_9allocatorINS_10__function6__funcIPFvvENS2_IS6_EES5_EEEEEELi1ELb0EE5__getB7v160006Ev, symObjAddr: 0x3C98, symBinAddr: 0x100006FF0, symSize: 0x14 }
  - { offsetInCU: 0xCC40, offset: 0x1BE51, size: 0x8, addend: 0x0, symName: __ZNSt3__116allocator_traitsINS_9allocatorINS_10__function6__funcIPFvvENS1_IS5_EES4_EEEEE10deallocateB7v160006ERS8_PS7_m, symObjAddr: 0x3CAC, symBinAddr: 0x100007004, symSize: 0x34 }
  - { offsetInCU: 0xCC82, offset: 0x1BE93, size: 0x8, addend: 0x0, symName: __ZNSt3__19allocatorINS_10__function6__funcIPFvvENS0_IS4_EES3_EEE10deallocateB7v160006EPS6_m, symObjAddr: 0x3CE0, symBinAddr: 0x100007038, symSize: 0x40 }
  - { offsetInCU: 0xCCC4, offset: 0x1BED5, size: 0x8, addend: 0x0, symName: __ZNSt3__110__function6__funcIPFvvENS_9allocatorIS3_EES2_EC1B7v160006ERKS3_RKS5_, symObjAddr: 0x3D20, symBinAddr: 0x100007078, symSize: 0x3C }
  - { offsetInCU: 0xCD0C, offset: 0x1BF1D, size: 0x8, addend: 0x0, symName: __ZNSt3__110__function6__funcIPFvvENS_9allocatorIS3_EES2_EC2B7v160006ERKS3_RKS5_, symObjAddr: 0x3D5C, symBinAddr: 0x1000070B4, symSize: 0x88 }
  - { offsetInCU: 0xCD54, offset: 0x1BF65, size: 0x8, addend: 0x0, symName: __ZNSt3__110__function12__alloc_funcIPFvvENS_9allocatorIS3_EES2_EC1B7v160006ERKS3_RKS5_, symObjAddr: 0x3DE4, symBinAddr: 0x10000713C, symSize: 0x3C }
  - { offsetInCU: 0xCD9A, offset: 0x1BFAB, size: 0x8, addend: 0x0, symName: __ZNSt3__110__function12__alloc_funcIPFvvENS_9allocatorIS3_EES2_EC2B7v160006ERKS3_RKS5_, symObjAddr: 0x3E20, symBinAddr: 0x100007178, symSize: 0x5C }
  - { offsetInCU: 0xCDE0, offset: 0x1BFF1, size: 0x8, addend: 0x0, symName: __ZNSt3__117__compressed_pairIPFvvENS_9allocatorIS2_EEEC1B7v160006IJRKS2_EJRKS4_EEENS_21piecewise_construct_tENS_5tupleIJDpT_EEENSC_IJDpT0_EEE, symObjAddr: 0x3EA8, symBinAddr: 0x100007200, symSize: 0x3C }
  - { offsetInCU: 0xCE4A, offset: 0x1C05B, size: 0x8, addend: 0x0, symName: __ZNSt3__15tupleIJRKNS_9allocatorIPFvvEEEEEC1B7v160006INS_4_AndELi0EEES6_, symObjAddr: 0x3EE4, symBinAddr: 0x10000723C, symSize: 0x34 }
  - { offsetInCU: 0xCE94, offset: 0x1C0A5, size: 0x8, addend: 0x0, symName: __ZNSt3__15tupleIJRKNS_9allocatorIPFvvEEEEEC2B7v160006INS_4_AndELi0EEES6_, symObjAddr: 0x3F18, symBinAddr: 0x100007270, symSize: 0x34 }
  - { offsetInCU: 0xCEDE, offset: 0x1C0EF, size: 0x8, addend: 0x0, symName: __ZNSt3__112__tuple_implINS_15__tuple_indicesIJLm0EEEEJRKNS_9allocatorIPFvvEEEEEC1B7v160006IJLm0EEJS8_EJEJEJS8_EEENS1_IJXspT_EEEENS_13__tuple_typesIJDpT0_EEENS1_IJXspT1_EEEENSC_IJDpT2_EEEDpOT3_, symObjAddr: 0x3F4C, symBinAddr: 0x1000072A4, symSize: 0x34 }
  - { offsetInCU: 0xCF74, offset: 0x1C185, size: 0x8, addend: 0x0, symName: __ZNSt3__112__tuple_implINS_15__tuple_indicesIJLm0EEEEJRKNS_9allocatorIPFvvEEEEEC2B7v160006IJLm0EEJS8_EJEJEJS8_EEENS1_IJXspT_EEEENS_13__tuple_typesIJDpT0_EEENS1_IJXspT1_EEEENSC_IJDpT2_EEEDpOT3_, symObjAddr: 0x3F80, symBinAddr: 0x1000072D8, symSize: 0x34 }
  - { offsetInCU: 0xD00A, offset: 0x1C21B, size: 0x8, addend: 0x0, symName: __ZNSt3__112__tuple_leafILm0ERKNS_9allocatorIPFvvEEELb0EEC2B7v160006IS6_vEEOT_, symObjAddr: 0x3FB4, symBinAddr: 0x10000730C, symSize: 0x20 }
  - { offsetInCU: 0xD04D, offset: 0x1C25E, size: 0x8, addend: 0x0, symName: __ZNSt3__117__compressed_pairIPFvvENS_9allocatorIS2_EEEC2B7v160006IJRKS2_EJRKS4_EEENS_21piecewise_construct_tENS_5tupleIJDpT_EEENSC_IJDpT0_EEE, symObjAddr: 0x3FD4, symBinAddr: 0x10000732C, symSize: 0x54 }
  - { offsetInCU: 0xD0B7, offset: 0x1C2C8, size: 0x8, addend: 0x0, symName: __ZNSt3__122__compressed_pair_elemINS_9allocatorIPFvvEEELi1ELb1EEC2B7v160006IJRKS4_EJLm0EEEENS_21piecewise_construct_tENS_5tupleIJDpT_EEENS_15__tuple_indicesIJXspT0_EEEE, symObjAddr: 0x4028, symBinAddr: 0x100007380, symSize: 0x38 }
  - { offsetInCU: 0xD11D, offset: 0x1C32E, size: 0x8, addend: 0x0, symName: __ZNSt3__112__tuple_leafILm0ERKNS_9allocatorIPFvvEEELb0EE3getB7v160006Ev, symObjAddr: 0x4084, symBinAddr: 0x1000073DC, symSize: 0x18 }
  - { offsetInCU: 0xD143, offset: 0x1C354, size: 0x8, addend: 0x0, symName: __ZNSt3__110__function12__alloc_funcIPFvvENS_9allocatorIS3_EES2_E7destroyB7v160006Ev, symObjAddr: 0x409C, symBinAddr: 0x1000073F4, symSize: 0x10 }
  - { offsetInCU: 0xD169, offset: 0x1C37A, size: 0x8, addend: 0x0, symName: __ZNSt3__110__function12__alloc_funcIPFvvENS_9allocatorIS3_EES2_EclB7v160006Ev, symObjAddr: 0x40AC, symBinAddr: 0x100007404, symSize: 0x28 }
  - { offsetInCU: 0xD18F, offset: 0x1C3A0, size: 0x8, addend: 0x0, symName: __ZNSt3__128__invoke_void_return_wrapperIvLb1EE6__callIJRPFvvEEEEvDpOT_, symObjAddr: 0x40D4, symBinAddr: 0x10000742C, symSize: 0x24 }
  - { offsetInCU: 0xD1BE, offset: 0x1C3CF, size: 0x8, addend: 0x0, symName: __ZNSt3__117__compressed_pairIPFvvENS_9allocatorIS2_EEE5firstB7v160006Ev, symObjAddr: 0x40F8, symBinAddr: 0x100007450, symSize: 0x24 }
  - { offsetInCU: 0xD1E4, offset: 0x1C3F5, size: 0x8, addend: 0x0, symName: __ZNSt3__122__compressed_pair_elemIPFvvELi0ELb0EE5__getB7v160006Ev, symObjAddr: 0x4144, symBinAddr: 0x10000749C, symSize: 0x14 }
  - { offsetInCU: 0xD240, offset: 0x1C451, size: 0x8, addend: 0x0, symName: __ZNKSt9type_infoeqB7v160006ERKS_, symObjAddr: 0x4158, symBinAddr: 0x1000074B0, symSize: 0xDC }
  - { offsetInCU: 0xD2DE, offset: 0x1C4EF, size: 0x8, addend: 0x0, symName: __ZNSt27__type_info_implementations30__non_unique_arm_rtti_bit_impl21__is_type_name_uniqueB7v160006Em, symObjAddr: 0x4234, symBinAddr: 0x10000758C, symSize: 0x20 }
...
